

Microchip MPLAB XC8 Assembler V2.40 build 20220703182018 
                                                                                               Sun Nov 06 18:58:10 2022

Microchip MPLAB XC8 C Compiler v2.40 (Free license) build 20220703182018 Og1 
     1                           	processor	18F67K40
     2                           	fnconf	rparam,??,?,0
     3                           	pagewidth 120
     4                           	opt	flic
     5                           	psect	smallconst,global,reloc=2,class=SMALLCONST,delta=1,noexec
     6                           	psect	cinit,global,reloc=2,class=CODE,delta=1
     7                           	psect	bssCOMRAM,global,class=COMRAM,space=1,delta=1,lowdata,noexec
     8                           	psect	cstackCOMRAM,global,class=COMRAM,space=1,delta=1,lowdata,noexec
     9                           	psect	text0,global,reloc=2,class=CODE,delta=1
    10                           	psect	text1,global,reloc=2,class=CODE,delta=1
    11                           	psect	text2,global,reloc=2,class=CODE,delta=1
    12                           	psect	text3,global,reloc=2,class=CODE,delta=1
    13                           	psect	text4,global,reloc=2,class=CODE,delta=1,group=1
    14                           	psect	text5,global,reloc=2,class=CODE,delta=1
    15                           	psect	text6,global,reloc=2,class=CODE,delta=1
    16                           	psect	text7,global,reloc=2,class=CODE,delta=1
    17                           	psect	text8,global,reloc=2,class=CODE,delta=1
    18                           	psect	text9,global,reloc=2,class=CODE,delta=1
    19                           	psect	text10,global,reloc=2,class=CODE,delta=1
    20                           	psect	text11,global,reloc=2,class=CODE,delta=1
    21                           	psect	text12,global,reloc=2,class=CODE,delta=1
    22                           	psect	intcodelo,global,reloc=2,class=CODE,delta=1
    23                           	psect	intcode,global,reloc=2,class=CODE,delta=1
    24                           	psect	intcode_body,global,reloc=2,class=CODE,delta=1
    25                           	psect	intsave_regs,global,class=BIGRAM,space=1,delta=1,noexec
    26                           	psect	rparam,global,class=COMRAM,space=1,delta=1,noexec
    27                           	psect	temp,global,ovrld,common,class=COMRAM,space=1,delta=1
    28                           	psect	idloc,global,abs,ovrld,class=IDLOC,space=5,delta=1,noexec
    29                           	psect	config,global,abs,ovrld,class=CONFIG,space=4,delta=1,noexec
    30   000000                     
    31                           ; Generated 06/04/2022 GMT
    32                           ; 
    33                           ; Copyright © 2022, Microchip Technology Inc. and its subsidiaries ("Microchip")
    34                           ; All rights reserved.
    35                           ; 
    36                           ; This software is developed by Microchip Technology Inc. and its subsidiaries ("Microch
      +                          ip").
    37                           ; 
    38                           ; Redistribution and use in source and binary forms, with or without modification, are
    39                           ; permitted provided that the following conditions are met:
    40                           ; 
    41                           ;     1. Redistributions of source code must retain the above copyright notice, this lis
      +                          t of
    42                           ;        conditions and the following disclaimer.
    43                           ; 
    44                           ;     2. Redistributions in binary form must reproduce the above copyright notice, this 
      +                          list
    45                           ;        of conditions and the following disclaimer in the documentation and/or other
    46                           ;        materials provided with the distribution. Publication is not required when
    47                           ;        this file is used in an embedded application.
    48                           ; 
    49                           ;     3. Microchip's name may not be used to endorse or promote products derived from th
      +                          is
    50                           ;        software without specific prior written permission.
    51                           ; 
    52                           ; THIS SOFTWARE IS PROVIDED BY MICROCHIP "AS IS" AND ANY EXPRESS OR IMPLIED WARRANTIES,
    53                           ; INCLUDING, BUT NOT LIMITED TO, THE IMPLIED WARRANTIES OF MERCHANTABILITY AND FITNESS F
      +                          OR
    54                           ; PURPOSE ARE DISCLAIMED.  IN NO EVENT SHALL MICROCHIP BE LIABLE FOR ANY DIRECT, INDIREC
      +                          T,
    55                           ; INCIDENTAL, SPECIAL, EXEMPLARY, OR CONSEQUENTIAL DAMAGES (INCLUDING BUT NOT LIMITED TO
    56                           ; PROCUREMENT OF SUBSTITUTE GOODS OR SERVICES; LOSS OF USE, DATA OR PROFITS; OR BUSINESS
    57                           ; INTERRUPTION) HOWSOEVER CAUSED AND ON ANY THEORY OF LIABILITY, WHETHER IN CONTRACT, ST
      +                          RICT
    58                           ; LIABILITY, OR TORT (INCLUDING NEGLIGENCE OR OTHERWISE) ARISING IN ANY WAY OUT OF THE U
      +                          SE OF
    59                           ; THIS SOFTWARE, EVEN IF ADVISED OF THE POSSIBILITY OF SUCH DAMAGE.
    60                           ; 
    61                           ; 
    62                           ; Code-generator required, PIC18F67K40 Definitions
    63                           ; 
    64                           ; SFR Addresses
    65   000000                     
    66                           	psect	smallconst
    67   000E00                     __psmallconst:
    68                           	callstack 0
    69   000E00  00                 	db	0
    70   000E01  0000               	dw	0
    71   000E03  0000               	dw	0
    72   000E05  CFDC               	dw	53212
    73   000E07  35D1               	dw	13777
    74   000E09                     __end_of_dp_l:
    75                           	callstack 0
    76   000E09  0000               	dw	0
    77   000E0B  0000               	dw	0
    78   000E0D  C000               	dw	49152
    79   000E0F  3F15               	dw	16149
    80   000E11                     __end_of_dp_h:
    81                           	callstack 0
    82   000E11  4260               	dw	16992
    83   000E13  0DA2               	dw	3490
    84   000E15                     __end_of_tiny@sqrtf$F1857:
    85                           	callstack 0
    86   000E15  A570               	dw	42352
    87   000E17  36EC               	dw	14060
    88   000E19                     __end_of_ivln2_l:
    89                           	callstack 0
    90   000E19  AA3B               	dw	43579
    91   000E1B  3FB8               	dw	16312
    92   000E1D                     __end_of_ivln2:
    93                           	callstack 0
    94   000E1D  384F               	dw	14415
    95   000E1F  3F76               	dw	16246
    96   000E21                     __end_of_cp:
    97                           	callstack 0
    98   000E21  AA3C               	dw	43580
    99   000E23  3338               	dw	13112
   100   000E25                     __end_of_ovt:
   101                           	callstack 0
   102   000E25  BE8C               	dw	48780
   103   000E27  35BF               	dw	13759
   104   000E29                     __end_of_lg2_l:
   105                           	callstack 0
   106   000E29  7200               	dw	29184
   107   000E2B  3F31               	dw	16177
   108   000E2D                     __end_of_lg2_h:
   109                           	callstack 0
   110   000E2D  7218               	dw	29208
   111   000E2F  3F31               	dw	16177
   112   000E31                     __end_of_lg2:
   113                           	callstack 0
   114   000E31  BB4C               	dw	47948
   115   000E33  3331               	dw	13105
   116   000E35                     __end_of_P5:
   117                           	callstack 0
   118   000E35  EA0E               	dw	59918
   119   000E37  B5DD               	dw	46557
   120   000E39                     __end_of_P4:
   121                           	callstack 0
   122   000E39  B355               	dw	45909
   123   000E3B  388A               	dw	14474
   124   000E3D                     __end_of_P3:
   125                           	callstack 0
   126   000E3D  0B61               	dw	2913
   127   000E3F  BB36               	dw	47926
   128   000E41                     __end_of_P2:
   129                           	callstack 0
   130   000E41  AAAB               	dw	43691
   131   000E43  3E2A               	dw	15914
   132   000E45                     __end_of_P1:
   133                           	callstack 0
   134   000E45  F142               	dw	61762
   135   000E47  3E53               	dw	15955
   136   000E49                     __end_of_L6:
   137                           	callstack 0
   138   000E49  3255               	dw	12885
   139   000E4B  3E6C               	dw	15980
   140   000E4D                     __end_of_L5:
   141                           	callstack 0
   142   000E4D  A305               	dw	41733
   143   000E4F  3E8B               	dw	16011
   144   000E51                     __end_of_L4:
   145                           	callstack 0
   146   000E51  AAAB               	dw	43691
   147   000E53  3EAA               	dw	16042
   148   000E55                     __end_of_L3:
   149                           	callstack 0
   150   000E55  6DB7               	dw	28087
   151   000E57  3EDB               	dw	16091
   152   000E59                     __end_of_L2:
   153                           	callstack 0
   154   000E59  999A               	dw	39322
   155   000E5B  3F19               	dw	16153
   156   000E5D                     __end_of_L1:
   157                           	callstack 0
   158   000E5D  4260               	dw	16992
   159   000E5F  0DA2               	dw	3490
   160   000E61                     __end_of_tiny:
   161                           	callstack 0
   162   000E61  F2CA               	dw	62154
   163   000E63  7149               	dw	29001
   164   000E65                     __end_of_huge:
   165                           	callstack 0
   166   000E65  0000               	dw	0
   167   000E67  4B80               	dw	19328
   168   000E69                     __end_of_two24:
   169                           	callstack 0
   170   000E69  0000               	dw	0
   171   000E6B  3F80               	dw	16256
   172   000E6D  0000               	dw	0
   173   000E6F  3FC0               	dw	16320
   174   000E71                     __end_of_bp:
   175                           	callstack 0
   176   000E71  AA00               	dw	43520
   177   000E73  3FB8               	dw	16312
   178   000E75                     __end_of_ivln2_h:
   179                           	callstack 0
   180   000E75  23C6               	dw	9158
   181   000E77  B8F6               	dw	47350
   182   000E79                     __end_of_cp_l:
   183                           	callstack 0
   184   000E79  4000               	dw	16384
   185   000E7B  3F76               	dw	16246
   186   000E7D                     __end_of_cp_h:
   187                           	callstack 0
   188   000000                     _T0CON0bits	set	4053
   189   000000                     _T0CON1bits	set	4054
   190   000000                     _LATHbits	set	3968
   191   000000                     _CM1CON1bits	set	3793
   192   000000                     _IPR0bits	set	3615
   193   000000                     _IPR2bits	set	3617
   194   000000                     _PIE0bits	set	3625
   195   000000                     _PIE2bits	set	3627
   196   000000                     _ANSELAbits	set	3730
   197   000000                     _TRISAbits	set	3969
   198   000000                     _TRISDbits	set	3972
   199   000000                     _TRISBbits	set	3970
   200   000000                     _TRISFbits	set	3974
   201   000000                     _TRISGbits	set	3975
   202   000000                     _DAC1CON0bits	set	3782
   203   000000                     _ADREFbits	set	3928
   204   000000                     _ADPCH	set	3935
   205   000000                     _ADRESH	set	3940
   206   000000                     _ADCON0bits	set	3936
   207   000000                     _LATAbits	set	3961
   208   000000                     _LATGbits	set	3967
   209   000000                     _TRISHbits	set	3976
   210   000000                     _TMR0L	set	4051
   211   000000                     _TMR0H	set	4052
   212   000000                     _INTCONbits	set	4082
   213   000000                     _LATDbits	set	3964
   214   000000                     _LATBbits	set	3962
   215   000000                     _LATFbits	set	3966
   216   000000                     _CM1CON0bits	set	3792
   217   000000                     _CM1NCHbits	set	3794
   218   000000                     _DAC1CON1bits	set	3783
   219   000000                     _CM1PCHbits	set	3795
   220   000000                     _PIR0bits	set	3635
   221   000000                     _PIR2bits	set	3637
   222   000E7D                     
   223                           ; BSR set to: 14
   224   000E7D  00                 	db	0
   225   000E7E  00                 	db	0	; dummy byte at the end
   226   000000                     
   227                           ; #config settings
   228                           
   229                           	psect	cinit
   230   0011E2                     __pcinit:
   231                           	callstack 0
   232   0011E2                     start_initialization:
   233                           	callstack 0
   234   0011E2                     __initialization:
   235                           	callstack 0
   236                           
   237                           ; Clear objects allocated to COMRAM (16 bytes)
   238   0011E2  EE00  F020         	lfsr	0,__pbssCOMRAM
   239   0011E6  0E10               	movlw	16
   240   0011E8                     clear_0:
   241   0011E8  6AEE               	clrf	postinc0,c
   242   0011EA  06E8               	decf	wreg,f,c
   243   0011EC  E1FD               	bnz	clear_0
   244   0011EE                     end_of_initialization:
   245                           	callstack 0
   246   0011EE                     __end_of__initialization:
   247                           	callstack 0
   248   0011EE  9030               	bcf	int$flags,0,c	;clear compiler interrupt flag (level 1)
   249   0011F0  9230               	bcf	int$flags,1,c	;clear compiler interrupt flag (level 2)
   250   0011F2  0E00               	movlw	low (__Lsmallconst shr (0+16))
   251   0011F4  6EF8               	movwf	tblptru,c
   252   0011F6  0E0E               	movlw	high __Lsmallconst
   253   0011F8  6EF7               	movwf	tblptrh,c
   254   0011FA  0100               	movlb	0
   255   0011FC  EF90  F008         	goto	_main	;jump to C main() function
   256                           
   257                           	psect	bssCOMRAM
   258   000020                     __pbssCOMRAM:
   259                           	callstack 0
   260   000020                     	ds	4
   261   000024                     _errno:
   262                           	callstack 0
   263   000024                     	ds	2
   264   000026                     _year:
   265                           	callstack 0
   266   000026                     	ds	2
   267   000028                     _week:
   268                           	callstack 0
   269   000028                     	ds	2
   270   00002A                     _day:
   271                           	callstack 0
   272   00002A                     	ds	2
   273   00002C                     _hour:
   274                           	callstack 0
   275   00002C                     	ds	2
   276   00002E                     _seconds:
   277                           	callstack 0
   278   00002E                     	ds	2
   279                           
   280                           	psect	cstackCOMRAM
   281   000001                     __pcstackCOMRAM:
   282                           	callstack 0
   283   000001                     ??_HighISR:
   284   000001                     
   285                           ; 1 bytes @ 0x0
   286   000001                     	ds	1
   287   000002                     ??_LowISR:
   288                           
   289                           ; 1 bytes @ 0x1
   290   000002                     	ds	4
   291   000006                     ?___awmod:
   292                           	callstack 0
   293   000006                     LEDarray_disp_bin@number:
   294                           	callstack 0
   295   000006                     ___awmod@dividend:
   296                           	callstack 0
   297                           
   298                           ; 2 bytes @ 0x5
   299   000006                     	ds	2
   300   000008                     ??_LEDarray_disp_bin:
   301   000008                     ___awmod@divisor:
   302                           	callstack 0
   303                           
   304                           ; 2 bytes @ 0x7
   305   000008                     	ds	2
   306   00000A                     ___awmod@counter:
   307                           	callstack 0
   308   00000A                     LEDarray_disp_bin@led_arr:
   309                           	callstack 0
   310                           
   311                           ; 18 bytes @ 0x9
   312   00000A                     	ds	1
   313   00000B                     ___awmod@sign:
   314                           	callstack 0
   315                           
   316                           ; 1 bytes @ 0xA
   317   00000B                     	ds	17
   318   00001C                     LEDarray_disp_bin@mask:
   319                           	callstack 0
   320                           
   321                           ; 2 bytes @ 0x1B
   322   00001C                     	ds	2
   323   00001E                     LEDarray_disp_bin@ctr:
   324                           	callstack 0
   325                           
   326                           ; 2 bytes @ 0x1D
   327   00001E                     	ds	2
   328   000020                     
   329                           ; 1 bytes @ 0x1F
   330 ;;
   331 ;;Main: autosize = 0, tempsize = 0, incstack = 0, save=0
   332 ;;
   333 ;; *************** function _main *****************
   334 ;; Defined at:
   335 ;;		line 18 in file "main.c"
   336 ;; Parameters:    Size  Location     Type
   337 ;;		None
   338 ;; Auto vars:     Size  Location     Type
   339 ;;		None
   340 ;; Return value:  Size  Location     Type
   341 ;;                  1    wreg      void 
   342 ;; Registers used:
   343 ;;		wreg, fsr2l, fsr2h, status,2, status,0, cstack
   344 ;; Tracked objects:
   345 ;;		On entry : 0/0
   346 ;;		On exit  : 0/0
   347 ;;		Unchanged: 0/0
   348 ;; Data sizes:     COMRAM   BANK0   BANK1   BANK2   BANK3   BANK4   BANK5   BANK6   BANK7   BANK8   BANK9  BANK10  BANK1
      +1  BANK12  BANK13
   349 ;;      Params:         0       0       0       0       0       0       0       0       0       0       0       0       
      +0       0       0
   350 ;;      Locals:         0       0       0       0       0       0       0       0       0       0       0       0       
      +0       0       0
   351 ;;      Temps:          0       0       0       0       0       0       0       0       0       0       0       0       
      +0       0       0
   352 ;;      Totals:         0       0       0       0       0       0       0       0       0       0       0       0       
      +0       0       0
   353 ;;Total ram usage:        0 bytes
   354 ;; Hardware stack levels required when called: 4
   355 ;; This function calls:
   356 ;;		_ADC_init
   357 ;;		_Comp1_init_falling_edge
   358 ;;		_Comp1_init_rising_edge
   359 ;;		_Interrupts_init
   360 ;;		_LEDarray_init
   361 ;;		_Timer0_init
   362 ;;		_increment
   363 ;;		_poweroff
   364 ;;		_streetLightInit
   365 ;; This function is called by:
   366 ;;		Startup code after reset
   367 ;; This function uses a non-reentrant model
   368 ;;
   369                           
   370                           	psect	text0
   371   001120                     __ptext0:
   372                           	callstack 0
   373   001120                     _main:
   374                           	callstack 27
   375   001120                     
   376                           ;main.c: 21:     streetLightInit();
   377   001120  EC20  F009         	call	_streetLightInit	;wreg free
   378   001124                     
   379                           ;main.c: 22:     hour = 0;
   380   001124  0E00               	movlw	0
   381   001126  6E2D               	movwf	(_hour+1)^0,c
   382   001128  0E00               	movlw	0
   383   00112A  6E2C               	movwf	_hour^0,c
   384   00112C                     
   385                           ;main.c: 23:     LEDarray_init();
   386   00112C  ECAA  F008         	call	_LEDarray_init	;wreg free
   387   001130                     
   388                           ;main.c: 24:     Timer0_init();
   389   001130  ECE1  F008         	call	_Timer0_init	;wreg free
   390   001134                     
   391                           ;main.c: 25:     Comp1_init_rising_edge();
   392   001134  ECBD  F008         	call	_Comp1_init_rising_edge	;wreg free
   393   001138                     
   394                           ;main.c: 26:     Comp1_init_falling_edge();
   395   001138  ECCF  F008         	call	_Comp1_init_falling_edge	;wreg free
   396                           
   397                           ;main.c: 27:     Interrupts_init();
   398   00113C  EC17  F009         	call	_Interrupts_init	;wreg free
   399   001140                     
   400                           ;main.c: 28:     ADC_init();
   401   001140  EC00  F009         	call	_ADC_init	;wreg free
   402   001144                     l1566:
   403                           
   404                           ;main.c: 30:         increment();
   405   001144  EC0C  F008         	call	_increment	;wreg free
   406   001148                     
   407                           ;main.c: 31:         poweroff();
   408   001148  EC54  F008         	call	_poweroff	;wreg free
   409   00114C  EFA2  F008         	goto	l1566
   410   001150  EF50  F000         	goto	start
   411   001154                     __end_of_main:
   412                           	callstack 0
   413                           
   414 ;; *************** function _streetLightInit *****************
   415 ;; Defined at:
   416 ;;		line 12 in file "Functions.c"
   417 ;; Parameters:    Size  Location     Type
   418 ;;		None
   419 ;; Auto vars:     Size  Location     Type
   420 ;;		None
   421 ;; Return value:  Size  Location     Type
   422 ;;                  1    wreg      void 
   423 ;; Registers used:
   424 ;;		None
   425 ;; Tracked objects:
   426 ;;		On entry : 0/0
   427 ;;		On exit  : 0/0
   428 ;;		Unchanged: 0/0
   429 ;; Data sizes:     COMRAM   BANK0   BANK1   BANK2   BANK3   BANK4   BANK5   BANK6   BANK7   BANK8   BANK9  BANK10  BANK1
      +1  BANK12  BANK13
   430 ;;      Params:         0       0       0       0       0       0       0       0       0       0       0       0       
      +0       0       0
   431 ;;      Locals:         0       0       0       0       0       0       0       0       0       0       0       0       
      +0       0       0
   432 ;;      Temps:          0       0       0       0       0       0       0       0       0       0       0       0       
      +0       0       0
   433 ;;      Totals:         0       0       0       0       0       0       0       0       0       0       0       0       
      +0       0       0
   434 ;;Total ram usage:        0 bytes
   435 ;; Hardware stack levels used: 1
   436 ;; Hardware stack levels required when called: 2
   437 ;; This function calls:
   438 ;;		Nothing
   439 ;; This function is called by:
   440 ;;		_main
   441 ;; This function uses a non-reentrant model
   442 ;;
   443                           
   444                           	psect	text1
   445   001240                     __ptext1:
   446                           	callstack 0
   447   001240                     _streetLightInit:
   448                           	callstack 28
   449   001240                     
   450                           ;Functions.c: 13:     LATHbits.LATH3 = 0;
   451   001240  9680               	bcf	128,3,c	;volatile
   452                           
   453                           ;Functions.c: 14:     TRISHbits.TRISH3 = 0;
   454   001242  9688               	bcf	136,3,c	;volatile
   455                           
   456                           ;Functions.c: 15:     LATDbits.LATD7 = 1;
   457   001244  8E7C               	bsf	124,7,c	;volatile
   458                           
   459                           ;Functions.c: 16:     TRISDbits.TRISD7 = 0;
   460   001246  9E84               	bcf	132,7,c	;volatile
   461   001248  0012               	return		;funcret
   462   00124A                     __end_of_streetLightInit:
   463                           	callstack 0
   464                           
   465 ;; *************** function _poweroff *****************
   466 ;; Defined at:
   467 ;;		line 46 in file "Functions.c"
   468 ;; Parameters:    Size  Location     Type
   469 ;;		None
   470 ;; Auto vars:     Size  Location     Type
   471 ;;		None
   472 ;; Return value:  Size  Location     Type
   473 ;;                  1    wreg      void 
   474 ;; Registers used:
   475 ;;		wreg, status,2, status,0
   476 ;; Tracked objects:
   477 ;;		On entry : 0/0
   478 ;;		On exit  : 0/0
   479 ;;		Unchanged: 0/0
   480 ;; Data sizes:     COMRAM   BANK0   BANK1   BANK2   BANK3   BANK4   BANK5   BANK6   BANK7   BANK8   BANK9  BANK10  BANK1
      +1  BANK12  BANK13
   481 ;;      Params:         0       0       0       0       0       0       0       0       0       0       0       0       
      +0       0       0
   482 ;;      Locals:         0       0       0       0       0       0       0       0       0       0       0       0       
      +0       0       0
   483 ;;      Temps:          0       0       0       0       0       0       0       0       0       0       0       0       
      +0       0       0
   484 ;;      Totals:         0       0       0       0       0       0       0       0       0       0       0       0       
      +0       0       0
   485 ;;Total ram usage:        0 bytes
   486 ;; Hardware stack levels used: 1
   487 ;; Hardware stack levels required when called: 2
   488 ;; This function calls:
   489 ;;		Nothing
   490 ;; This function is called by:
   491 ;;		_main
   492 ;; This function uses a non-reentrant model
   493 ;;
   494                           
   495                           	psect	text2
   496   0010A8                     __ptext2:
   497                           	callstack 0
   498   0010A8                     _poweroff:
   499                           	callstack 28
   500   0010A8                     
   501                           ;Functions.c: 49:         if (1 < hour && hour < 5) {
   502   0010A8  BE2D               	btfsc	(_hour+1)^0,7,c
   503   0010AA  EF60  F008         	goto	u221
   504   0010AE  502D               	movf	(_hour+1)^0,w,c
   505   0010B0  E109               	bnz	u220
   506   0010B2  0E02               	movlw	2
   507   0010B4  5C2C               	subwf	_hour^0,w,c
   508   0010B6  A0D8               	btfss	status,0,c
   509   0010B8  EF60  F008         	goto	u221
   510   0010BC  EF62  F008         	goto	u220
   511   0010C0                     u221:
   512   0010C0  EF71  F008         	goto	l291
   513   0010C4                     u220:
   514   0010C4  BE2D               	btfsc	(_hour+1)^0,7,c
   515   0010C6  EF70  F008         	goto	u230
   516   0010CA  502D               	movf	(_hour+1)^0,w,c
   517   0010CC  E107               	bnz	u231
   518   0010CE  0E05               	movlw	5
   519   0010D0  5C2C               	subwf	_hour^0,w,c
   520   0010D2  B0D8               	btfsc	status,0,c
   521   0010D4  EF6E  F008         	goto	u231
   522   0010D8  EF70  F008         	goto	u230
   523   0010DC                     u231:
   524   0010DC  EF71  F008         	goto	l291
   525   0010E0                     u230:
   526   0010E0                     
   527                           ;Functions.c: 50:             LATHbits.LATH3 = 0;
   528   0010E0  9680               	bcf	128,3,c	;volatile
   529   0010E2                     l291:
   530   0010E2  0012               	return		;funcret
   531   0010E4                     __end_of_poweroff:
   532                           	callstack 0
   533                           
   534 ;; *************** function _increment *****************
   535 ;; Defined at:
   536 ;;		line 18 in file "Functions.c"
   537 ;; Parameters:    Size  Location     Type
   538 ;;		None
   539 ;; Auto vars:     Size  Location     Type
   540 ;;		None
   541 ;; Return value:  Size  Location     Type
   542 ;;                  1    wreg      void 
   543 ;; Registers used:
   544 ;;		wreg, fsr2l, fsr2h, status,2, status,0, cstack
   545 ;; Tracked objects:
   546 ;;		On entry : 0/0
   547 ;;		On exit  : 0/0
   548 ;;		Unchanged: 0/0
   549 ;; Data sizes:     COMRAM   BANK0   BANK1   BANK2   BANK3   BANK4   BANK5   BANK6   BANK7   BANK8   BANK9  BANK10  BANK1
      +1  BANK12  BANK13
   550 ;;      Params:         0       0       0       0       0       0       0       0       0       0       0       0       
      +0       0       0
   551 ;;      Locals:         0       0       0       0       0       0       0       0       0       0       0       0       
      +0       0       0
   552 ;;      Temps:          0       0       0       0       0       0       0       0       0       0       0       0       
      +0       0       0
   553 ;;      Totals:         0       0       0       0       0       0       0       0       0       0       0       0       
      +0       0       0
   554 ;;Total ram usage:        0 bytes
   555 ;; Hardware stack levels used: 1
   556 ;; Hardware stack levels required when called: 3
   557 ;; This function calls:
   558 ;;		_LEDarray_disp_bin
   559 ;;		___awmod
   560 ;; This function is called by:
   561 ;;		_main
   562 ;; This function uses a non-reentrant model
   563 ;;
   564                           
   565                           	psect	text3
   566   001018                     __ptext3:
   567                           	callstack 0
   568   001018                     _increment:
   569                           	callstack 27
   570   001018                     
   571                           ;Functions.c: 21:     if (seconds == 1)
   572   001018  042E               	decf	_seconds^0,w,c
   573   00101A  102F               	iorwf	(_seconds+1)^0,w,c
   574   00101C  A4D8               	btfss	status,2,c
   575   00101E  EF13  F008         	goto	u541
   576   001022  EF15  F008         	goto	u540
   577   001026                     u541:
   578   001026  EF21  F008         	goto	l1494
   579   00102A                     u540:
   580   00102A                     
   581                           ;Functions.c: 22:     {;Functions.c: 23:         hour++;
   582   00102A  4A2C               	infsnz	_hour^0,f,c
   583   00102C  2A2D               	incf	(_hour+1)^0,f,c
   584   00102E                     
   585                           ;Functions.c: 24:         LEDarray_disp_bin(hour);
   586   00102E  C02C  F006         	movff	_hour,LEDarray_disp_bin@number
   587   001032  C02D  F007         	movff	_hour+1,LEDarray_disp_bin@number+1
   588   001036  EC40  F007         	call	_LEDarray_disp_bin	;wreg free
   589   00103A                     
   590                           ;Functions.c: 25:         seconds = 0;
   591   00103A  0E00               	movlw	0
   592   00103C  6E2F               	movwf	(_seconds+1)^0,c
   593   00103E  0E00               	movlw	0
   594   001040  6E2E               	movwf	_seconds^0,c
   595   001042                     l1494:
   596                           
   597                           ;Functions.c: 29:     if (hour == 24)
   598   001042  0E18               	movlw	24
   599   001044  182C               	xorwf	_hour^0,w,c
   600   001046  102D               	iorwf	(_hour+1)^0,w,c
   601   001048  A4D8               	btfss	status,2,c
   602   00104A  EF29  F008         	goto	u551
   603   00104E  EF2B  F008         	goto	u550
   604   001052                     u551:
   605   001052  EF31  F008         	goto	l1500
   606   001056                     u550:
   607   001056                     
   608                           ;Functions.c: 30:     {;Functions.c: 31:         day++;
   609   001056  4A2A               	infsnz	_day^0,f,c
   610   001058  2A2B               	incf	(_day+1)^0,f,c
   611   00105A                     
   612                           ;Functions.c: 32:         hour = 0;
   613   00105A  0E00               	movlw	0
   614   00105C  6E2D               	movwf	(_hour+1)^0,c
   615   00105E  0E00               	movlw	0
   616   001060  6E2C               	movwf	_hour^0,c
   617   001062                     l1500:
   618                           
   619                           ;Functions.c: 35:     if (day%7 == 0)
   620   001062  C02A  F006         	movff	_day,___awmod@dividend
   621   001066  C02B  F007         	movff	_day+1,___awmod@dividend+1
   622   00106A  0E00               	movlw	0
   623   00106C  6E09               	movwf	(___awmod@divisor+1)^0,c
   624   00106E  0E07               	movlw	7
   625   001070  6E08               	movwf	___awmod@divisor^0,c
   626   001072  ECB4  F007         	call	___awmod	;wreg free
   627   001076  5006               	movf	?___awmod^0,w,c
   628   001078  1007               	iorwf	(?___awmod+1)^0,w,c
   629   00107A  A4D8               	btfss	status,2,c
   630   00107C  EF42  F008         	goto	u561
   631   001080  EF44  F008         	goto	u560
   632   001084                     u561:
   633   001084  EF46  F008         	goto	l1504
   634   001088                     u560:
   635   001088                     
   636                           ;Functions.c: 36:     {;Functions.c: 37:         week++;
   637   001088  4A28               	infsnz	_week^0,f,c
   638   00108A  2A29               	incf	(_week+1)^0,f,c
   639   00108C                     l1504:
   640                           
   641                           ;Functions.c: 39:     if (day == 365)
   642   00108C  0E6D               	movlw	109
   643   00108E  182A               	xorwf	_day^0,w,c
   644   001090  E106               	bnz	u571
   645   001092  042B               	decf	(_day+1)^0,w,c
   646   001094  A4D8               	btfss	status,2,c
   647   001096  EF4F  F008         	goto	u571
   648   00109A  EF51  F008         	goto	u570
   649   00109E                     u571:
   650   00109E  EF53  F008         	goto	l287
   651   0010A2                     u570:
   652   0010A2                     
   653                           ;Functions.c: 40:     {;Functions.c: 41:         year++;
   654   0010A2  4A26               	infsnz	_year^0,f,c
   655   0010A4  2A27               	incf	(_year+1)^0,f,c
   656   0010A6                     l287:
   657   0010A6  0012               	return		;funcret
   658   0010A8                     __end_of_increment:
   659                           	callstack 0
   660                           
   661 ;; *************** function ___awmod *****************
   662 ;; Defined at:
   663 ;;		line 7 in file "C:\Program Files\Microchip\xc8\v2.40\pic\sources\c99\common\awmod.c"
   664 ;; Parameters:    Size  Location     Type
   665 ;;  dividend        2    5[COMRAM] int 
   666 ;;  divisor         2    7[COMRAM] int 
   667 ;; Auto vars:     Size  Location     Type
   668 ;;  sign            1   10[COMRAM] unsigned char 
   669 ;;  counter         1    9[COMRAM] unsigned char 
   670 ;; Return value:  Size  Location     Type
   671 ;;                  2    5[COMRAM] int 
   672 ;; Registers used:
   673 ;;		wreg, status,2, status,0
   674 ;; Tracked objects:
   675 ;;		On entry : 0/0
   676 ;;		On exit  : 0/0
   677 ;;		Unchanged: 0/0
   678 ;; Data sizes:     COMRAM   BANK0   BANK1   BANK2   BANK3   BANK4   BANK5   BANK6   BANK7   BANK8   BANK9  BANK10  BANK1
      +1  BANK12  BANK13
   679 ;;      Params:         4       0       0       0       0       0       0       0       0       0       0       0       
      +0       0       0
   680 ;;      Locals:         2       0       0       0       0       0       0       0       0       0       0       0       
      +0       0       0
   681 ;;      Temps:          0       0       0       0       0       0       0       0       0       0       0       0       
      +0       0       0
   682 ;;      Totals:         6       0       0       0       0       0       0       0       0       0       0       0       
      +0       0       0
   683 ;;Total ram usage:        6 bytes
   684 ;; Hardware stack levels used: 1
   685 ;; Hardware stack levels required when called: 2
   686 ;; This function calls:
   687 ;;		Nothing
   688 ;; This function is called by:
   689 ;;		_increment
   690 ;; This function uses a non-reentrant model
   691 ;;
   692                           
   693                           	psect	text4
   694   000F68                     __ptext4:
   695                           	callstack 0
   696   000F68                     ___awmod:
   697                           	callstack 27
   698   000F68  0E00               	movlw	0
   699   000F6A  6E0B               	movwf	___awmod@sign^0,c
   700   000F6C  BE07               	btfsc	(___awmod@dividend+1)^0,7,c
   701   000F6E  EFBD  F007         	goto	u480
   702   000F72  EFBB  F007         	goto	u481
   703   000F76                     u481:
   704   000F76  EFC3  F007         	goto	l1458
   705   000F7A                     u480:
   706   000F7A  6C06               	negf	___awmod@dividend^0,c
   707   000F7C  1E07               	comf	(___awmod@dividend+1)^0,f,c
   708   000F7E  B0D8               	btfsc	status,0,c
   709   000F80  2A07               	incf	(___awmod@dividend+1)^0,f,c
   710   000F82  0E01               	movlw	1
   711   000F84  6E0B               	movwf	___awmod@sign^0,c
   712   000F86                     l1458:
   713   000F86  BE09               	btfsc	(___awmod@divisor+1)^0,7,c
   714   000F88  EFCA  F007         	goto	u490
   715   000F8C  EFC8  F007         	goto	u491
   716   000F90                     u491:
   717   000F90  EFCE  F007         	goto	l1462
   718   000F94                     u490:
   719   000F94  6C08               	negf	___awmod@divisor^0,c
   720   000F96  1E09               	comf	(___awmod@divisor+1)^0,f,c
   721   000F98  B0D8               	btfsc	status,0,c
   722   000F9A  2A09               	incf	(___awmod@divisor+1)^0,f,c
   723   000F9C                     l1462:
   724   000F9C  5008               	movf	___awmod@divisor^0,w,c
   725   000F9E  1009               	iorwf	(___awmod@divisor+1)^0,w,c
   726   000FA0  B4D8               	btfsc	status,2,c
   727   000FA2  EFD5  F007         	goto	u501
   728   000FA6  EFD7  F007         	goto	u500
   729   000FAA                     u501:
   730   000FAA  EFFB  F007         	goto	l1478
   731   000FAE                     u500:
   732   000FAE  0E01               	movlw	1
   733   000FB0  6E0A               	movwf	___awmod@counter^0,c
   734   000FB2  EFDF  F007         	goto	l1468
   735   000FB6                     l1466:
   736   000FB6  90D8               	bcf	status,0,c
   737   000FB8  3608               	rlcf	___awmod@divisor^0,f,c
   738   000FBA  3609               	rlcf	(___awmod@divisor+1)^0,f,c
   739   000FBC  2A0A               	incf	___awmod@counter^0,f,c
   740   000FBE                     l1468:
   741   000FBE  AE09               	btfss	(___awmod@divisor+1)^0,7,c
   742   000FC0  EFE4  F007         	goto	u511
   743   000FC4  EFE6  F007         	goto	u510
   744   000FC8                     u511:
   745   000FC8  EFDB  F007         	goto	l1466
   746   000FCC                     u510:
   747   000FCC                     l1470:
   748   000FCC  5008               	movf	___awmod@divisor^0,w,c
   749   000FCE  5C06               	subwf	___awmod@dividend^0,w,c
   750   000FD0  5009               	movf	(___awmod@divisor+1)^0,w,c
   751   000FD2  5807               	subwfb	(___awmod@dividend+1)^0,w,c
   752   000FD4  A0D8               	btfss	status,0,c
   753   000FD6  EFEF  F007         	goto	u521
   754   000FDA  EFF1  F007         	goto	u520
   755   000FDE                     u521:
   756   000FDE  EFF5  F007         	goto	l1474
   757   000FE2                     u520:
   758   000FE2  5008               	movf	___awmod@divisor^0,w,c
   759   000FE4  5E06               	subwf	___awmod@dividend^0,f,c
   760   000FE6  5009               	movf	(___awmod@divisor+1)^0,w,c
   761   000FE8  5A07               	subwfb	(___awmod@dividend+1)^0,f,c
   762   000FEA                     l1474:
   763   000FEA  90D8               	bcf	status,0,c
   764   000FEC  3209               	rrcf	(___awmod@divisor+1)^0,f,c
   765   000FEE  3208               	rrcf	___awmod@divisor^0,f,c
   766   000FF0  2E0A               	decfsz	___awmod@counter^0,f,c
   767   000FF2  EFE6  F007         	goto	l1470
   768   000FF6                     l1478:
   769   000FF6  500B               	movf	___awmod@sign^0,w,c
   770   000FF8  B4D8               	btfsc	status,2,c
   771   000FFA  EF01  F008         	goto	u531
   772   000FFE  EF03  F008         	goto	u530
   773   001002                     u531:
   774   001002  EF07  F008         	goto	l1482
   775   001006                     u530:
   776   001006  6C06               	negf	___awmod@dividend^0,c
   777   001008  1E07               	comf	(___awmod@dividend+1)^0,f,c
   778   00100A  B0D8               	btfsc	status,0,c
   779   00100C  2A07               	incf	(___awmod@dividend+1)^0,f,c
   780   00100E                     l1482:
   781   00100E  C006  F006         	movff	___awmod@dividend,?___awmod
   782   001012  C007  F007         	movff	___awmod@dividend+1,?___awmod+1
   783   001016  0012               	return		;funcret
   784   001018                     __end_of___awmod:
   785                           	callstack 0
   786                           
   787 ;; *************** function _LEDarray_disp_bin *****************
   788 ;; Defined at:
   789 ;;		line 38 in file "LEDarray.c"
   790 ;; Parameters:    Size  Location     Type
   791 ;;  number          2    5[COMRAM] unsigned int 
   792 ;; Auto vars:     Size  Location     Type
   793 ;;  ctr             2   29[COMRAM] int 
   794 ;;  led_arr        18    9[COMRAM] int [9]
   795 ;;  mask            2   27[COMRAM] int 
   796 ;; Return value:  Size  Location     Type
   797 ;;                  1    wreg      void 
   798 ;; Registers used:
   799 ;;		wreg, fsr2l, fsr2h, status,2, status,0
   800 ;; Tracked objects:
   801 ;;		On entry : 0/0
   802 ;;		On exit  : 0/0
   803 ;;		Unchanged: 0/0
   804 ;; Data sizes:     COMRAM   BANK0   BANK1   BANK2   BANK3   BANK4   BANK5   BANK6   BANK7   BANK8   BANK9  BANK10  BANK1
      +1  BANK12  BANK13
   805 ;;      Params:         2       0       0       0       0       0       0       0       0       0       0       0       
      +0       0       0
   806 ;;      Locals:        22       0       0       0       0       0       0       0       0       0       0       0       
      +0       0       0
   807 ;;      Temps:          2       0       0       0       0       0       0       0       0       0       0       0       
      +0       0       0
   808 ;;      Totals:        26       0       0       0       0       0       0       0       0       0       0       0       
      +0       0       0
   809 ;;Total ram usage:       26 bytes
   810 ;; Hardware stack levels used: 1
   811 ;; Hardware stack levels required when called: 2
   812 ;; This function calls:
   813 ;;		Nothing
   814 ;; This function is called by:
   815 ;;		_increment
   816 ;;		_ADC_lightMeter
   817 ;;		_LEDarray_disp_dec
   818 ;;		_LEDarray_disp_PPM
   819 ;;		_incrementseconds
   820 ;; This function uses a non-reentrant model
   821 ;;
   822                           
   823                           	psect	text5
   824   000E80                     __ptext5:
   825                           	callstack 0
   826   000E80                     _LEDarray_disp_bin:
   827                           	callstack 27
   828   000E80                     
   829                           ;LEDarray.c: 38: void LEDarray_disp_bin(unsigned int number);LEDarray.c: 39: {;LEDarray.
      +                          c: 43:     int mask= 0b000000001;
   830   000E80  0E00               	movlw	0
   831   000E82  6E1D               	movwf	(LEDarray_disp_bin@mask+1)^0,c
   832   000E84  0E01               	movlw	1
   833   000E86  6E1C               	movwf	LEDarray_disp_bin@mask^0,c
   834                           
   835                           ;LEDarray.c: 44:     int led_arr[9];;LEDarray.c: 45:     for(int ctr=0;ctr<9;ctr++){
   836   000E88  0E00               	movlw	0
   837   000E8A  6E1F               	movwf	(LEDarray_disp_bin@ctr+1)^0,c
   838   000E8C  0E00               	movlw	0
   839   000E8E  6E1E               	movwf	LEDarray_disp_bin@ctr^0,c
   840   000E90                     l1438:
   841                           
   842                           ;LEDarray.c: 46:         if (number & mask)
   843   000E90  5006               	movf	LEDarray_disp_bin@number^0,w,c
   844   000E92  141C               	andwf	LEDarray_disp_bin@mask^0,w,c
   845   000E94  6E08               	movwf	??_LEDarray_disp_bin^0,c
   846   000E96  5007               	movf	(LEDarray_disp_bin@number+1)^0,w,c
   847   000E98  141D               	andwf	(LEDarray_disp_bin@mask+1)^0,w,c
   848   000E9A  6E09               	movwf	(??_LEDarray_disp_bin+1)^0,c
   849   000E9C  5008               	movf	??_LEDarray_disp_bin^0,w,c
   850   000E9E  1009               	iorwf	(??_LEDarray_disp_bin+1)^0,w,c
   851   000EA0  B4D8               	btfsc	status,2,c
   852   000EA2  EF55  F007         	goto	u371
   853   000EA6  EF57  F007         	goto	u370
   854   000EAA                     u371:
   855   000EAA  EF66  F007         	goto	l1442
   856   000EAE                     u370:
   857   000EAE                     
   858                           ;LEDarray.c: 47:             led_arr[ctr]=1;
   859   000EAE  90D8               	bcf	status,0,c
   860   000EB0  341E               	rlcf	LEDarray_disp_bin@ctr^0,w,c
   861   000EB2  6ED9               	movwf	fsr2l,c
   862   000EB4  341F               	rlcf	(LEDarray_disp_bin@ctr+1)^0,w,c
   863   000EB6  6EDA               	movwf	fsr2h,c
   864   000EB8  0E0A               	movlw	low LEDarray_disp_bin@led_arr
   865   000EBA  26D9               	addwf	fsr2l,f,c
   866   000EBC  0E00               	movlw	high LEDarray_disp_bin@led_arr
   867   000EBE  22DA               	addwfc	fsr2h,f,c
   868   000EC0  0E01               	movlw	1
   869   000EC2  6EDE               	movwf	postinc2,c
   870   000EC4  0E00               	movlw	0
   871   000EC6  6EDD               	movwf	postdec2,c
   872   000EC8  EF73  F007         	goto	l1444
   873   000ECC                     l1442:
   874                           
   875                           ;LEDarray.c: 50:             led_arr[ctr]=0;
   876   000ECC  90D8               	bcf	status,0,c
   877   000ECE  341E               	rlcf	LEDarray_disp_bin@ctr^0,w,c
   878   000ED0  6ED9               	movwf	fsr2l,c
   879   000ED2  341F               	rlcf	(LEDarray_disp_bin@ctr+1)^0,w,c
   880   000ED4  6EDA               	movwf	fsr2h,c
   881   000ED6  0E0A               	movlw	low LEDarray_disp_bin@led_arr
   882   000ED8  26D9               	addwf	fsr2l,f,c
   883   000EDA  0E00               	movlw	high LEDarray_disp_bin@led_arr
   884   000EDC  22DA               	addwfc	fsr2h,f,c
   885   000EDE  0E00               	movlw	0
   886   000EE0  6EDE               	movwf	postinc2,c
   887   000EE2  0E00               	movlw	0
   888   000EE4  6EDD               	movwf	postdec2,c
   889   000EE6                     l1444:
   890                           
   891                           ;LEDarray.c: 52:         mask<<=1;
   892   000EE6  90D8               	bcf	status,0,c
   893   000EE8  361C               	rlcf	LEDarray_disp_bin@mask^0,f,c
   894   000EEA  361D               	rlcf	(LEDarray_disp_bin@mask+1)^0,f,c
   895   000EEC                     
   896                           ;LEDarray.c: 53:     }
   897   000EEC  4A1E               	infsnz	LEDarray_disp_bin@ctr^0,f,c
   898   000EEE  2A1F               	incf	(LEDarray_disp_bin@ctr+1)^0,f,c
   899   000EF0  BE1F               	btfsc	(LEDarray_disp_bin@ctr+1)^0,7,c
   900   000EF2  EF84  F007         	goto	u381
   901   000EF6  501F               	movf	(LEDarray_disp_bin@ctr+1)^0,w,c
   902   000EF8  E109               	bnz	u380
   903   000EFA  0E09               	movlw	9
   904   000EFC  5C1E               	subwf	LEDarray_disp_bin@ctr^0,w,c
   905   000EFE  A0D8               	btfss	status,0,c
   906   000F00  EF84  F007         	goto	u381
   907   000F04  EF86  F007         	goto	u380
   908   000F08                     u381:
   909   000F08  EF48  F007         	goto	l1438
   910   000F0C                     u380:
   911   000F0C                     
   912                           ;LEDarray.c: 55:     LATGbits.LATG0 = led_arr[0];
   913   000F0C  B00A               	btfsc	LEDarray_disp_bin@led_arr^0,0,c
   914   000F0E  D002               	bra	u395
   915   000F10  907F               	bcf	127,0,c	;volatile
   916   000F12  D001               	bra	u396
   917   000F14                     u395:
   918   000F14  807F               	bsf	127,0,c	;volatile
   919   000F16                     u396:
   920                           
   921                           ;LEDarray.c: 56:     LATGbits.LATG1 = led_arr[1];
   922   000F16  B00C               	btfsc	(LEDarray_disp_bin@led_arr+2)^0,0,c
   923   000F18  D002               	bra	u405
   924   000F1A  927F               	bcf	127,1,c	;volatile
   925   000F1C  D001               	bra	u406
   926   000F1E                     u405:
   927   000F1E  827F               	bsf	127,1,c	;volatile
   928   000F20                     u406:
   929                           
   930                           ;LEDarray.c: 57:     LATAbits.LATA2 = led_arr[2];
   931   000F20  B00E               	btfsc	(LEDarray_disp_bin@led_arr+4)^0,0,c
   932   000F22  D002               	bra	u415
   933   000F24  9479               	bcf	121,2,c	;volatile
   934   000F26  D001               	bra	u416
   935   000F28                     u415:
   936   000F28  8479               	bsf	121,2,c	;volatile
   937   000F2A                     u416:
   938                           
   939                           ;LEDarray.c: 58:     LATFbits.LATF6 = led_arr[3];
   940   000F2A  B010               	btfsc	(LEDarray_disp_bin@led_arr+6)^0,0,c
   941   000F2C  D002               	bra	u425
   942   000F2E  9C7E               	bcf	126,6,c	;volatile
   943   000F30  D001               	bra	u426
   944   000F32                     u425:
   945   000F32  8C7E               	bsf	126,6,c	;volatile
   946   000F34                     u426:
   947                           
   948                           ;LEDarray.c: 59:     LATAbits.LATA4 = led_arr[4];
   949   000F34  B012               	btfsc	(LEDarray_disp_bin@led_arr+8)^0,0,c
   950   000F36  D002               	bra	u435
   951   000F38  9879               	bcf	121,4,c	;volatile
   952   000F3A  D001               	bra	u436
   953   000F3C                     u435:
   954   000F3C  8879               	bsf	121,4,c	;volatile
   955   000F3E                     u436:
   956                           
   957                           ;LEDarray.c: 60:     LATAbits.LATA5 = led_arr[5];
   958   000F3E  B014               	btfsc	(LEDarray_disp_bin@led_arr+10)^0,0,c
   959   000F40  D002               	bra	u445
   960   000F42  9A79               	bcf	121,5,c	;volatile
   961   000F44  D001               	bra	u446
   962   000F46                     u445:
   963   000F46  8A79               	bsf	121,5,c	;volatile
   964   000F48                     u446:
   965                           
   966                           ;LEDarray.c: 61:     LATFbits.LATF0 = led_arr[6];
   967   000F48  B016               	btfsc	(LEDarray_disp_bin@led_arr+12)^0,0,c
   968   000F4A  D002               	bra	u455
   969   000F4C  907E               	bcf	126,0,c	;volatile
   970   000F4E  D001               	bra	u456
   971   000F50                     u455:
   972   000F50  807E               	bsf	126,0,c	;volatile
   973   000F52                     u456:
   974                           
   975                           ;LEDarray.c: 62:     LATBbits.LATB0 = led_arr[7];
   976   000F52  B018               	btfsc	(LEDarray_disp_bin@led_arr+14)^0,0,c
   977   000F54  D002               	bra	u465
   978   000F56  907A               	bcf	122,0,c	;volatile
   979   000F58  D001               	bra	u466
   980   000F5A                     u465:
   981   000F5A  807A               	bsf	122,0,c	;volatile
   982   000F5C                     u466:
   983                           
   984                           ;LEDarray.c: 63:     LATBbits.LATB1 = led_arr[8];
   985   000F5C  B01A               	btfsc	(LEDarray_disp_bin@led_arr+16)^0,0,c
   986   000F5E  D002               	bra	u475
   987   000F60  927A               	bcf	122,1,c	;volatile
   988   000F62  D001               	bra	u476
   989   000F64                     u475:
   990   000F64  827A               	bsf	122,1,c	;volatile
   991   000F66                     u476:
   992   000F66  0012               	return		;funcret
   993   000F68                     __end_of_LEDarray_disp_bin:
   994                           	callstack 0
   995                           
   996 ;; *************** function _Timer0_init *****************
   997 ;; Defined at:
   998 ;;		line 7 in file "timers.c"
   999 ;; Parameters:    Size  Location     Type
  1000 ;;		None
  1001 ;; Auto vars:     Size  Location     Type
  1002 ;;		None
  1003 ;; Return value:  Size  Location     Type
  1004 ;;                  1    wreg      void 
  1005 ;; Registers used:
  1006 ;;		wreg, status,2
  1007 ;; Tracked objects:
  1008 ;;		On entry : 0/0
  1009 ;;		On exit  : 0/0
  1010 ;;		Unchanged: 0/0
  1011 ;; Data sizes:     COMRAM   BANK0   BANK1   BANK2   BANK3   BANK4   BANK5   BANK6   BANK7   BANK8   BANK9  BANK10  BANK1
      +1  BANK12  BANK13
  1012 ;;      Params:         0       0       0       0       0       0       0       0       0       0       0       0       
      +0       0       0
  1013 ;;      Locals:         0       0       0       0       0       0       0       0       0       0       0       0       
      +0       0       0
  1014 ;;      Temps:          0       0       0       0       0       0       0       0       0       0       0       0       
      +0       0       0
  1015 ;;      Totals:         0       0       0       0       0       0       0       0       0       0       0       0       
      +0       0       0
  1016 ;;Total ram usage:        0 bytes
  1017 ;; Hardware stack levels used: 1
  1018 ;; Hardware stack levels required when called: 2
  1019 ;; This function calls:
  1020 ;;		Nothing
  1021 ;; This function is called by:
  1022 ;;		_main
  1023 ;; This function uses a non-reentrant model
  1024 ;;
  1025                           
  1026                           	psect	text6
  1027   0011C2                     __ptext6:
  1028                           	callstack 0
  1029   0011C2                     _Timer0_init:
  1030                           	callstack 28
  1031   0011C2                     
  1032                           ;timers.c: 9:     T0CON1bits.T0CS=0b010;
  1033   0011C2  50D6               	movf	214,w,c	;volatile
  1034   0011C4  0B1F               	andlw	-225
  1035   0011C6  0940               	iorlw	64
  1036   0011C8  6ED6               	movwf	214,c	;volatile
  1037   0011CA                     
  1038                           ;timers.c: 10:     T0CON1bits.T0ASYNC=1;
  1039   0011CA  88D6               	bsf	214,4,c	;volatile
  1040                           
  1041                           ;timers.c: 11:     T0CON1bits.T0CKPS=0b1000;
  1042   0011CC  50D6               	movf	214,w,c	;volatile
  1043   0011CE  0BF0               	andlw	-16
  1044   0011D0  0908               	iorlw	8
  1045   0011D2  6ED6               	movwf	214,c	;volatile
  1046   0011D4                     
  1047                           ;timers.c: 12:     T0CON0bits.T016BIT=1;
  1048   0011D4  88D5               	bsf	213,4,c	;volatile
  1049                           
  1050                           ;timers.c: 15:     TMR0H=0b00001011;
  1051   0011D6  0E0B               	movlw	11
  1052   0011D8  6ED4               	movwf	212,c	;volatile
  1053                           
  1054                           ;timers.c: 16:     TMR0L=0b11011011;
  1055   0011DA  0EDB               	movlw	219
  1056   0011DC  6ED3               	movwf	211,c	;volatile
  1057   0011DE                     
  1058                           ;timers.c: 17:     T0CON0bits.T0EN=1;
  1059   0011DE  8ED5               	bsf	213,7,c	;volatile
  1060   0011E0  0012               	return		;funcret
  1061   0011E2                     __end_of_Timer0_init:
  1062                           	callstack 0
  1063                           
  1064 ;; *************** function _LEDarray_init *****************
  1065 ;; Defined at:
  1066 ;;		line 10 in file "LEDarray.c"
  1067 ;; Parameters:    Size  Location     Type
  1068 ;;		None
  1069 ;; Auto vars:     Size  Location     Type
  1070 ;;		None
  1071 ;; Return value:  Size  Location     Type
  1072 ;;                  1    wreg      void 
  1073 ;; Registers used:
  1074 ;;		None
  1075 ;; Tracked objects:
  1076 ;;		On entry : 0/0
  1077 ;;		On exit  : 0/0
  1078 ;;		Unchanged: 0/0
  1079 ;; Data sizes:     COMRAM   BANK0   BANK1   BANK2   BANK3   BANK4   BANK5   BANK6   BANK7   BANK8   BANK9  BANK10  BANK1
      +1  BANK12  BANK13
  1080 ;;      Params:         0       0       0       0       0       0       0       0       0       0       0       0       
      +0       0       0
  1081 ;;      Locals:         0       0       0       0       0       0       0       0       0       0       0       0       
      +0       0       0
  1082 ;;      Temps:          0       0       0       0       0       0       0       0       0       0       0       0       
      +0       0       0
  1083 ;;      Totals:         0       0       0       0       0       0       0       0       0       0       0       0       
      +0       0       0
  1084 ;;Total ram usage:        0 bytes
  1085 ;; Hardware stack levels used: 1
  1086 ;; Hardware stack levels required when called: 2
  1087 ;; This function calls:
  1088 ;;		Nothing
  1089 ;; This function is called by:
  1090 ;;		_main
  1091 ;; This function uses a non-reentrant model
  1092 ;;
  1093                           
  1094                           	psect	text7
  1095   001154                     __ptext7:
  1096                           	callstack 0
  1097   001154                     _LEDarray_init:
  1098                           	callstack 28
  1099   001154                     
  1100                           ;LEDarray.c: 13:     TRISGbits.TRISG0 = 0;
  1101   001154  9087               	bcf	135,0,c	;volatile
  1102                           
  1103                           ;LEDarray.c: 14:     TRISGbits.TRISG1 = 0;
  1104   001156  9287               	bcf	135,1,c	;volatile
  1105                           
  1106                           ;LEDarray.c: 15:     TRISAbits.TRISA2 = 0;
  1107   001158  9481               	bcf	129,2,c	;volatile
  1108                           
  1109                           ;LEDarray.c: 16:     TRISFbits.TRISF6 = 0;
  1110   00115A  9C86               	bcf	134,6,c	;volatile
  1111                           
  1112                           ;LEDarray.c: 17:     TRISAbits.TRISA4 = 0;
  1113   00115C  9881               	bcf	129,4,c	;volatile
  1114                           
  1115                           ;LEDarray.c: 18:     TRISAbits.TRISA5 = 0;
  1116   00115E  9A81               	bcf	129,5,c	;volatile
  1117                           
  1118                           ;LEDarray.c: 19:     TRISFbits.TRISF0 = 0;
  1119   001160  9086               	bcf	134,0,c	;volatile
  1120                           
  1121                           ;LEDarray.c: 20:     TRISBbits.TRISB0 = 0;
  1122   001162  9082               	bcf	130,0,c	;volatile
  1123                           
  1124                           ;LEDarray.c: 21:     TRISBbits.TRISB1 = 0;
  1125   001164  9282               	bcf	130,1,c	;volatile
  1126                           
  1127                           ;LEDarray.c: 24:     LATGbits.LATG0 = 0;
  1128   001166  907F               	bcf	127,0,c	;volatile
  1129                           
  1130                           ;LEDarray.c: 25:     LATGbits.LATG1 = 0;
  1131   001168  927F               	bcf	127,1,c	;volatile
  1132                           
  1133                           ;LEDarray.c: 26:     LATAbits.LATA2 = 0;
  1134   00116A  9479               	bcf	121,2,c	;volatile
  1135                           
  1136                           ;LEDarray.c: 27:     LATFbits.LATF6 = 0;
  1137   00116C  9C7E               	bcf	126,6,c	;volatile
  1138                           
  1139                           ;LEDarray.c: 28:     LATAbits.LATA4 = 0;
  1140   00116E  9879               	bcf	121,4,c	;volatile
  1141                           
  1142                           ;LEDarray.c: 29:     LATAbits.LATA5 = 0;
  1143   001170  9A79               	bcf	121,5,c	;volatile
  1144                           
  1145                           ;LEDarray.c: 30:     LATFbits.LATF0 = 0;
  1146   001172  907E               	bcf	126,0,c	;volatile
  1147                           
  1148                           ;LEDarray.c: 31:     LATBbits.LATB0 = 0;
  1149   001174  907A               	bcf	122,0,c	;volatile
  1150                           
  1151                           ;LEDarray.c: 32:     LATBbits.LATB1 = 0;
  1152   001176  927A               	bcf	122,1,c	;volatile
  1153   001178  0012               	return		;funcret
  1154   00117A                     __end_of_LEDarray_init:
  1155                           	callstack 0
  1156                           
  1157 ;; *************** function _Interrupts_init *****************
  1158 ;; Defined at:
  1159 ;;		line 10 in file "interrupts.c"
  1160 ;; Parameters:    Size  Location     Type
  1161 ;;		None
  1162 ;; Auto vars:     Size  Location     Type
  1163 ;;		None
  1164 ;; Return value:  Size  Location     Type
  1165 ;;                  1    wreg      void 
  1166 ;; Registers used:
  1167 ;;		None
  1168 ;; Tracked objects:
  1169 ;;		On entry : 0/0
  1170 ;;		On exit  : 0/0
  1171 ;;		Unchanged: 0/0
  1172 ;; Data sizes:     COMRAM   BANK0   BANK1   BANK2   BANK3   BANK4   BANK5   BANK6   BANK7   BANK8   BANK9  BANK10  BANK1
      +1  BANK12  BANK13
  1173 ;;      Params:         0       0       0       0       0       0       0       0       0       0       0       0       
      +0       0       0
  1174 ;;      Locals:         0       0       0       0       0       0       0       0       0       0       0       0       
      +0       0       0
  1175 ;;      Temps:          0       0       0       0       0       0       0       0       0       0       0       0       
      +0       0       0
  1176 ;;      Totals:         0       0       0       0       0       0       0       0       0       0       0       0       
      +0       0       0
  1177 ;;Total ram usage:        0 bytes
  1178 ;; Hardware stack levels used: 1
  1179 ;; Hardware stack levels required when called: 2
  1180 ;; This function calls:
  1181 ;;		Nothing
  1182 ;; This function is called by:
  1183 ;;		_main
  1184 ;; This function uses a non-reentrant model
  1185 ;;
  1186                           
  1187                           	psect	text8
  1188   00122E                     __ptext8:
  1189                           	callstack 0
  1190   00122E                     _Interrupts_init:
  1191                           	callstack 28
  1192   00122E                     
  1193                           ;interrupts.c: 14:     PIE2bits.C1IE=1;
  1194   00122E  010E               	movlb	14	; () banked
  1195   001230  812B               	bsf	43,0,b	;volatile
  1196                           
  1197                           ;interrupts.c: 15:     PIE0bits.TMR0IE=1;
  1198   001232  8B29               	bsf	41,5,b	;volatile
  1199                           
  1200                           ;interrupts.c: 16:     IPR2bits.C1IP = 1;
  1201   001234  8121               	bsf	33,0,b	;volatile
  1202                           
  1203                           ;interrupts.c: 17:     IPR0bits.TMR0IP = 0;
  1204   001236  9B1F               	bcf	31,5,b	;volatile
  1205                           
  1206                           ;interrupts.c: 18:     INTCONbits.IPEN=1;
  1207   001238  8AF2               	bsf	242,5,c	;volatile
  1208                           
  1209                           ;interrupts.c: 19:     INTCONbits.PEIE=1;
  1210   00123A  8CF2               	bsf	242,6,c	;volatile
  1211                           
  1212                           ;interrupts.c: 20:     INTCONbits.GIE=1;
  1213   00123C  8EF2               	bsf	242,7,c	;volatile
  1214   00123E                     
  1215                           ; BSR set to: 14
  1216   00123E  0012               	return		;funcret
  1217   001240                     __end_of_Interrupts_init:
  1218                           	callstack 0
  1219                           
  1220 ;; *************** function _Comp1_init_rising_edge *****************
  1221 ;; Defined at:
  1222 ;;		line 24 in file "comparator.c"
  1223 ;; Parameters:    Size  Location     Type
  1224 ;;		None
  1225 ;; Auto vars:     Size  Location     Type
  1226 ;;		None
  1227 ;; Return value:  Size  Location     Type
  1228 ;;                  1    wreg      void 
  1229 ;; Registers used:
  1230 ;;		wreg, status,2, cstack
  1231 ;; Tracked objects:
  1232 ;;		On entry : 0/0
  1233 ;;		On exit  : 0/0
  1234 ;;		Unchanged: 0/0
  1235 ;; Data sizes:     COMRAM   BANK0   BANK1   BANK2   BANK3   BANK4   BANK5   BANK6   BANK7   BANK8   BANK9  BANK10  BANK1
      +1  BANK12  BANK13
  1236 ;;      Params:         0       0       0       0       0       0       0       0       0       0       0       0       
      +0       0       0
  1237 ;;      Locals:         0       0       0       0       0       0       0       0       0       0       0       0       
      +0       0       0
  1238 ;;      Temps:          0       0       0       0       0       0       0       0       0       0       0       0       
      +0       0       0
  1239 ;;      Totals:         0       0       0       0       0       0       0       0       0       0       0       0       
      +0       0       0
  1240 ;;Total ram usage:        0 bytes
  1241 ;; Hardware stack levels used: 1
  1242 ;; Hardware stack levels required when called: 3
  1243 ;; This function calls:
  1244 ;;		_DAC_init
  1245 ;; This function is called by:
  1246 ;;		_main
  1247 ;; This function uses a non-reentrant model
  1248 ;;
  1249                           
  1250                           	psect	text9
  1251   00117A                     __ptext9:
  1252                           	callstack 0
  1253   00117A                     _Comp1_init_rising_edge:
  1254                           	callstack 27
  1255   00117A                     
  1256                           ;comparator.c: 26:     TRISFbits.TRISF7=1;
  1257   00117A  8E86               	bsf	134,7,c	;volatile
  1258   00117C                     
  1259                           ;comparator.c: 27:     CM1NCHbits.NCH=0b011;
  1260   00117C  010E               	movlb	14	; () banked
  1261   00117E  51D2               	movf	210,w,b	;volatile
  1262   001180  0BF8               	andlw	-8
  1263   001182  0903               	iorlw	3
  1264   001184  6FD2               	movwf	210,b	;volatile
  1265                           
  1266                           ;comparator.c: 28:     CM1PCHbits.PCH=0b101;
  1267   001186  51D3               	movf	211,w,b	;volatile
  1268   001188  0BF8               	andlw	-8
  1269   00118A  0905               	iorlw	5
  1270   00118C  6FD3               	movwf	211,b	;volatile
  1271   00118E                     
  1272                           ; BSR set to: 14
  1273                           ;comparator.c: 29:     CM1CON0bits.HYS=1;
  1274   00118E  83D0               	bsf	208,1,b	;volatile
  1275   001190                     
  1276                           ; BSR set to: 14
  1277                           ;comparator.c: 30:     CM1CON0bits.POL=1;
  1278   001190  89D0               	bsf	208,4,b	;volatile
  1279   001192                     
  1280                           ; BSR set to: 14
  1281                           ;comparator.c: 31:     CM1CON1bits.INTP=1;
  1282   001192  83D1               	bsf	209,1,b	;volatile
  1283   001194                     
  1284                           ; BSR set to: 14
  1285                           ;comparator.c: 32:     DAC_init();
  1286   001194  EC0D  F009         	call	_DAC_init	;wreg free
  1287   001198                     
  1288                           ;comparator.c: 33:     CM1CON0bits.EN=1;
  1289   001198  010E               	movlb	14	; () banked
  1290   00119A  8FD0               	bsf	208,7,b	;volatile
  1291   00119C                     
  1292                           ; BSR set to: 14
  1293   00119C  0012               	return		;funcret
  1294   00119E                     __end_of_Comp1_init_rising_edge:
  1295                           	callstack 0
  1296                           
  1297 ;; *************** function _Comp1_init_falling_edge *****************
  1298 ;; Defined at:
  1299 ;;		line 37 in file "comparator.c"
  1300 ;; Parameters:    Size  Location     Type
  1301 ;;		None
  1302 ;; Auto vars:     Size  Location     Type
  1303 ;;		None
  1304 ;; Return value:  Size  Location     Type
  1305 ;;                  1    wreg      void 
  1306 ;; Registers used:
  1307 ;;		wreg, status,2, cstack
  1308 ;; Tracked objects:
  1309 ;;		On entry : 0/0
  1310 ;;		On exit  : 0/0
  1311 ;;		Unchanged: 0/0
  1312 ;; Data sizes:     COMRAM   BANK0   BANK1   BANK2   BANK3   BANK4   BANK5   BANK6   BANK7   BANK8   BANK9  BANK10  BANK1
      +1  BANK12  BANK13
  1313 ;;      Params:         0       0       0       0       0       0       0       0       0       0       0       0       
      +0       0       0
  1314 ;;      Locals:         0       0       0       0       0       0       0       0       0       0       0       0       
      +0       0       0
  1315 ;;      Temps:          0       0       0       0       0       0       0       0       0       0       0       0       
      +0       0       0
  1316 ;;      Totals:         0       0       0       0       0       0       0       0       0       0       0       0       
      +0       0       0
  1317 ;;Total ram usage:        0 bytes
  1318 ;; Hardware stack levels used: 1
  1319 ;; Hardware stack levels required when called: 3
  1320 ;; This function calls:
  1321 ;;		_DAC_init
  1322 ;; This function is called by:
  1323 ;;		_main
  1324 ;; This function uses a non-reentrant model
  1325 ;;
  1326                           
  1327                           	psect	text10
  1328   00119E                     __ptext10:
  1329                           	callstack 0
  1330   00119E                     _Comp1_init_falling_edge:
  1331                           	callstack 27
  1332   00119E                     
  1333                           ;comparator.c: 39:     TRISFbits.TRISF7=1;
  1334   00119E  8E86               	bsf	134,7,c	;volatile
  1335   0011A0                     
  1336                           ;comparator.c: 40:     CM1NCHbits.NCH=0b011;
  1337   0011A0  010E               	movlb	14	; () banked
  1338   0011A2  51D2               	movf	210,w,b	;volatile
  1339   0011A4  0BF8               	andlw	-8
  1340   0011A6  0903               	iorlw	3
  1341   0011A8  6FD2               	movwf	210,b	;volatile
  1342                           
  1343                           ;comparator.c: 41:     CM1PCHbits.PCH=0b101;
  1344   0011AA  51D3               	movf	211,w,b	;volatile
  1345   0011AC  0BF8               	andlw	-8
  1346   0011AE  0905               	iorlw	5
  1347   0011B0  6FD3               	movwf	211,b	;volatile
  1348   0011B2                     
  1349                           ; BSR set to: 14
  1350                           ;comparator.c: 42:     CM1CON0bits.HYS=1;
  1351   0011B2  83D0               	bsf	208,1,b	;volatile
  1352   0011B4                     
  1353                           ; BSR set to: 14
  1354                           ;comparator.c: 43:     CM1CON0bits.POL=1;
  1355   0011B4  89D0               	bsf	208,4,b	;volatile
  1356   0011B6                     
  1357                           ; BSR set to: 14
  1358                           ;comparator.c: 44:     CM1CON1bits.INTN=1;
  1359   0011B6  81D1               	bsf	209,0,b	;volatile
  1360   0011B8                     
  1361                           ; BSR set to: 14
  1362                           ;comparator.c: 45:     DAC_init();
  1363   0011B8  EC0D  F009         	call	_DAC_init	;wreg free
  1364   0011BC                     
  1365                           ;comparator.c: 46:     CM1CON0bits.EN=1;
  1366   0011BC  010E               	movlb	14	; () banked
  1367   0011BE  8FD0               	bsf	208,7,b	;volatile
  1368   0011C0                     
  1369                           ; BSR set to: 14
  1370   0011C0  0012               	return		;funcret
  1371   0011C2                     __end_of_Comp1_init_falling_edge:
  1372                           	callstack 0
  1373                           
  1374 ;; *************** function _DAC_init *****************
  1375 ;; Defined at:
  1376 ;;		line 7 in file "comparator.c"
  1377 ;; Parameters:    Size  Location     Type
  1378 ;;		None
  1379 ;; Auto vars:     Size  Location     Type
  1380 ;;		None
  1381 ;; Return value:  Size  Location     Type
  1382 ;;                  1    wreg      void 
  1383 ;; Registers used:
  1384 ;;		wreg, status,2
  1385 ;; Tracked objects:
  1386 ;;		On entry : 0/0
  1387 ;;		On exit  : 0/0
  1388 ;;		Unchanged: 0/0
  1389 ;; Data sizes:     COMRAM   BANK0   BANK1   BANK2   BANK3   BANK4   BANK5   BANK6   BANK7   BANK8   BANK9  BANK10  BANK1
      +1  BANK12  BANK13
  1390 ;;      Params:         0       0       0       0       0       0       0       0       0       0       0       0       
      +0       0       0
  1391 ;;      Locals:         0       0       0       0       0       0       0       0       0       0       0       0       
      +0       0       0
  1392 ;;      Temps:          0       0       0       0       0       0       0       0       0       0       0       0       
      +0       0       0
  1393 ;;      Totals:         0       0       0       0       0       0       0       0       0       0       0       0       
      +0       0       0
  1394 ;;Total ram usage:        0 bytes
  1395 ;; Hardware stack levels used: 1
  1396 ;; Hardware stack levels required when called: 2
  1397 ;; This function calls:
  1398 ;;		Nothing
  1399 ;; This function is called by:
  1400 ;;		_Comp1_init_rising_edge
  1401 ;;		_Comp1_init_falling_edge
  1402 ;; This function uses a non-reentrant model
  1403 ;;
  1404                           
  1405                           	psect	text11
  1406   00121A                     __ptext11:
  1407                           	callstack 0
  1408   00121A                     _DAC_init:
  1409                           	callstack 27
  1410   00121A                     
  1411                           ;comparator.c: 9:     DAC1CON0bits.PSS=0b00;
  1412   00121A  0EF3               	movlw	-13
  1413   00121C  010E               	movlb	14	; () banked
  1414   00121E  17C6               	andwf	198,f,b	;volatile
  1415   001220                     
  1416                           ; BSR set to: 14
  1417                           ;comparator.c: 10:     DAC1CON0bits.NSS=0b0;
  1418   001220  91C6               	bcf	198,0,b	;volatile
  1419                           
  1420                           ;comparator.c: 14:     DAC1CON1bits.DAC1R=20;
  1421   001222  51C7               	movf	199,w,b	;volatile
  1422   001224  0BE0               	andlw	-32
  1423   001226  0914               	iorlw	20
  1424   001228  6FC7               	movwf	199,b	;volatile
  1425   00122A                     
  1426                           ; BSR set to: 14
  1427                           ;comparator.c: 15:     DAC1CON0bits.DAC1EN=1;
  1428   00122A  8FC6               	bsf	198,7,b	;volatile
  1429   00122C                     
  1430                           ; BSR set to: 14
  1431   00122C  0012               	return		;funcret
  1432   00122E                     __end_of_DAC_init:
  1433                           	callstack 0
  1434                           
  1435 ;; *************** function _ADC_init *****************
  1436 ;; Defined at:
  1437 ;;		line 11 in file "ADC.c"
  1438 ;; Parameters:    Size  Location     Type
  1439 ;;		None
  1440 ;; Auto vars:     Size  Location     Type
  1441 ;;		None
  1442 ;; Return value:  Size  Location     Type
  1443 ;;                  1    wreg      void 
  1444 ;; Registers used:
  1445 ;;		wreg, status,2
  1446 ;; Tracked objects:
  1447 ;;		On entry : 0/0
  1448 ;;		On exit  : 0/0
  1449 ;;		Unchanged: 0/0
  1450 ;; Data sizes:     COMRAM   BANK0   BANK1   BANK2   BANK3   BANK4   BANK5   BANK6   BANK7   BANK8   BANK9  BANK10  BANK1
      +1  BANK12  BANK13
  1451 ;;      Params:         0       0       0       0       0       0       0       0       0       0       0       0       
      +0       0       0
  1452 ;;      Locals:         0       0       0       0       0       0       0       0       0       0       0       0       
      +0       0       0
  1453 ;;      Temps:          0       0       0       0       0       0       0       0       0       0       0       0       
      +0       0       0
  1454 ;;      Totals:         0       0       0       0       0       0       0       0       0       0       0       0       
      +0       0       0
  1455 ;;Total ram usage:        0 bytes
  1456 ;; Hardware stack levels used: 1
  1457 ;; Hardware stack levels required when called: 2
  1458 ;; This function calls:
  1459 ;;		Nothing
  1460 ;; This function is called by:
  1461 ;;		_main
  1462 ;; This function uses a non-reentrant model
  1463 ;;
  1464                           
  1465                           	psect	text12
  1466   001200                     __ptext12:
  1467                           	callstack 0
  1468   001200                     _ADC_init:
  1469                           	callstack 28
  1470   001200                     
  1471                           ;ADC.c: 13:     TRISAbits.TRISA3=1;
  1472   001200  8681               	bsf	129,3,c	;volatile
  1473                           
  1474                           ;ADC.c: 14:     ANSELAbits.ANSELA3=1;
  1475   001202  010E               	movlb	14	; () banked
  1476   001204  8792               	bsf	146,3,b	;volatile
  1477                           
  1478                           ;ADC.c: 17:     ADREFbits.ADNREF = 0;
  1479   001206  010F               	movlb	15	; () banked
  1480   001208  9958               	bcf	88,4,b	;volatile
  1481   00120A                     
  1482                           ; BSR set to: 15
  1483                           ;ADC.c: 18:     ADREFbits.ADPREF = 0b00;
  1484   00120A  0EFC               	movlw	-4
  1485   00120C  1758               	andwf	88,f,b	;volatile
  1486                           
  1487                           ;ADC.c: 19:     ADPCH=0b11;
  1488   00120E  0E03               	movlw	3
  1489   001210  6F5F               	movwf	95,b	;volatile
  1490   001212                     
  1491                           ; BSR set to: 15
  1492                           ;ADC.c: 20:     ADCON0bits.ADFM = 0;
  1493   001212  9460               	bcf	96,2,c	;volatile
  1494   001214                     
  1495                           ; BSR set to: 15
  1496                           ;ADC.c: 21:     ADCON0bits.ADCS = 1;
  1497   001214  8860               	bsf	96,4,c	;volatile
  1498   001216                     
  1499                           ; BSR set to: 15
  1500                           ;ADC.c: 22:     ADCON0bits.ADON = 1;
  1501   001216  8E60               	bsf	96,7,c	;volatile
  1502   001218                     
  1503                           ; BSR set to: 15
  1504   001218  0012               	return		;funcret
  1505   00121A                     __end_of_ADC_init:
  1506                           	callstack 0
  1507                           
  1508 ;; *************** function _LowISR *****************
  1509 ;; Defined at:
  1510 ;;		line 37 in file "interrupts.c"
  1511 ;; Parameters:    Size  Location     Type
  1512 ;;		None
  1513 ;; Auto vars:     Size  Location     Type
  1514 ;;		None
  1515 ;; Return value:  Size  Location     Type
  1516 ;;                  1    wreg      void 
  1517 ;; Registers used:
  1518 ;;		wreg, status,2, status,0
  1519 ;; Tracked objects:
  1520 ;;		On entry : 0/0
  1521 ;;		On exit  : 0/0
  1522 ;;		Unchanged: 0/0
  1523 ;; Data sizes:     COMRAM   BANK0   BANK1   BANK2   BANK3   BANK4   BANK5   BANK6   BANK7   BANK8   BANK9  BANK10  BANK1
      +1  BANK12  BANK13
  1524 ;;      Params:         0       0       0       0       0       0       0       0       0       0       0       0       
      +0       0       0
  1525 ;;      Locals:         0       0       0       0       0       0       0       0       0       0       0       0       
      +0       0       0
  1526 ;;      Temps:          4       0       0       0       0       0       0       0       0       0       0       0       
      +0       0       0
  1527 ;;      Totals:         4       0       0       0       0       0       0       0       0       0       0       0       
      +0       0       0
  1528 ;;Total ram usage:        4 bytes
  1529 ;; Hardware stack levels used: 1
  1530 ;; Hardware stack levels required when called: 1
  1531 ;; This function calls:
  1532 ;;		Nothing
  1533 ;; This function is called by:
  1534 ;;		Interrupt level 1
  1535 ;; This function uses a non-reentrant model
  1536 ;;
  1537                           
  1538                           	psect	intcodelo
  1539   000018                     __pintcodelo:
  1540                           	callstack 0
  1541   000018                     _LowISR:
  1542                           	callstack 27
  1543                           
  1544                           ; BSR set to: 15
  1545                           ;incstack = 0
  1546   000018  8030               	bsf	int$flags,0,c	;set compiler interrupt flag (level 1)
  1547   00001A  CFD8 F003          	movff	status,??_LowISR+1
  1548   00001E  CFE8 F004          	movff	wreg,??_LowISR+2
  1549   000022  CFE0 F005          	movff	bsr,??_LowISR+3
  1550   000026                     
  1551                           ;interrupts.c: 39:     if(PIR0bits.TMR0IF){
  1552   000026  010E               	movlb	14	; () banked
  1553   000028  AB33               	btfss	51,5,b	;volatile
  1554   00002A  EF19  F000         	goto	i1u32_21
  1555   00002E  EF1B  F000         	goto	i1u32_20
  1556   000032                     i1u32_21:
  1557   000032  EF22  F000         	goto	i1l1406
  1558   000036                     i1u32_20:
  1559   000036                     
  1560                           ; BSR set to: 14
  1561                           ;interrupts.c: 40:         seconds++;
  1562   000036  4A2E               	infsnz	_seconds^0,f,c
  1563   000038  2A2F               	incf	(_seconds+1)^0,f,c
  1564   00003A                     
  1565                           ; BSR set to: 14
  1566                           ;interrupts.c: 41:         TMR0H=00001011;
  1567   00003A  0E09               	movlw	9
  1568   00003C  6ED4               	movwf	212,c	;volatile
  1569   00003E                     
  1570                           ; BSR set to: 14
  1571                           ;interrupts.c: 42:         TMR0L=11011011;
  1572   00003E  0EC3               	movlw	195
  1573   000040  6ED3               	movwf	211,c	;volatile
  1574   000042                     
  1575                           ; BSR set to: 14
  1576                           ;interrupts.c: 43:         PIR0bits.TMR0IF = 0;
  1577   000042  9B33               	bcf	51,5,b	;volatile
  1578   000044                     i1l1406:
  1579                           
  1580                           ; BSR set to: 14
  1581                           ;interrupts.c: 46:     if(seconds==5)
  1582   000044  0E05               	movlw	5
  1583   000046  182E               	xorwf	_seconds^0,w,c
  1584   000048  102F               	iorwf	(_seconds+1)^0,w,c
  1585   00004A  A4D8               	btfss	status,2,c
  1586   00004C  EF2A  F000         	goto	i1u33_21
  1587   000050  EF2C  F000         	goto	i1u33_20
  1588   000054                     i1u33_21:
  1589   000054  EF3D  F000         	goto	i1l175
  1590   000058                     i1u33_20:
  1591   000058                     
  1592                           ; BSR set to: 14
  1593                           ;interrupts.c: 47:     {;interrupts.c: 48:         LATDbits.LATD7 = !LATDbits.LATD7;
  1594   000058  AE7C               	btfss	124,7,c	;volatile
  1595   00005A  EF31  F000         	goto	i1u34_21
  1596   00005E  EF35  F000         	goto	i1u34_20
  1597   000062                     i1u34_21:
  1598   000062  6A02               	clrf	??_LowISR^0,c
  1599   000064  2A02               	incf	??_LowISR^0,f,c
  1600   000066  EF36  F000         	goto	i1u35_28
  1601   00006A                     i1u34_20:
  1602   00006A  6A02               	clrf	??_LowISR^0,c
  1603   00006C                     i1u35_28:
  1604   00006C  3202               	rrcf	??_LowISR^0,f,c
  1605   00006E  3202               	rrcf	??_LowISR^0,f,c
  1606   000070  507C               	movf	124,w,c	;volatile
  1607   000072  1802               	xorwf	??_LowISR^0,w,c
  1608   000074  0B7F               	andlw	-129
  1609   000076  1802               	xorwf	??_LowISR^0,w,c
  1610   000078  6E7C               	movwf	124,c	;volatile
  1611   00007A                     i1l175:
  1612                           
  1613                           ;interrupts.c: 50:     if (hour==5)
  1614   00007A  0E05               	movlw	5
  1615   00007C  182C               	xorwf	_hour^0,w,c
  1616   00007E  102D               	iorwf	(_hour+1)^0,w,c
  1617   000080  A4D8               	btfss	status,2,c
  1618   000082  EF45  F000         	goto	i1u36_21
  1619   000086  EF47  F000         	goto	i1u36_20
  1620   00008A                     i1u36_21:
  1621   00008A  EF48  F000         	goto	i1l177
  1622   00008E                     i1u36_20:
  1623   00008E                     
  1624                           ;interrupts.c: 51:     {;interrupts.c: 52:         LATHbits.LATH3 = 1;
  1625   00008E  8680               	bsf	128,3,c	;volatile
  1626   000090                     i1l177:
  1627   000090  C005  FFE0         	movff	??_LowISR+3,bsr
  1628   000094  C004  FFE8         	movff	??_LowISR+2,wreg
  1629   000098  C003  FFD8         	movff	??_LowISR+1,status
  1630   00009C  9030               	bcf	int$flags,0,c	;clear compiler interrupt flag (level 1)
  1631   00009E  0010               	retfie	
  1632   0000A0                     __end_of_LowISR:
  1633                           	callstack 0
  1634                           
  1635 ;; *************** function _HighISR *****************
  1636 ;; Defined at:
  1637 ;;		line 28 in file "interrupts.c"
  1638 ;; Parameters:    Size  Location     Type
  1639 ;;		None
  1640 ;; Auto vars:     Size  Location     Type
  1641 ;;		None
  1642 ;; Return value:  Size  Location     Type
  1643 ;;                  1    wreg      void 
  1644 ;; Registers used:
  1645 ;;		wreg, status,2, status,0
  1646 ;; Tracked objects:
  1647 ;;		On entry : 0/0
  1648 ;;		On exit  : 0/0
  1649 ;;		Unchanged: 0/0
  1650 ;; Data sizes:     COMRAM   BANK0   BANK1   BANK2   BANK3   BANK4   BANK5   BANK6   BANK7   BANK8   BANK9  BANK10  BANK1
      +1  BANK12  BANK13
  1651 ;;      Params:         0       0       0       0       0       0       0       0       0       0       0       0       
      +0       0       0
  1652 ;;      Locals:         0       0       0       0       0       0       0       0       0       0       0       0       
      +0       0       0
  1653 ;;      Temps:          1       0       0       0       0       0       0       0       0       0       0       0       
      +0       0       0
  1654 ;;      Totals:         1       0       0       0       0       0       0       0       0       0       0       0       
      +0       0       0
  1655 ;;Total ram usage:        1 bytes
  1656 ;; Hardware stack levels used: 1
  1657 ;; This function calls:
  1658 ;;		Nothing
  1659 ;; This function is called by:
  1660 ;;		Interrupt level 2
  1661 ;; This function uses a non-reentrant model
  1662 ;;
  1663                           
  1664                           	psect	intcode
  1665   000008                     __pintcode:
  1666                           	callstack 0
  1667   000008                     _HighISR:
  1668                           	callstack 27
  1669                           
  1670                           ;incstack = 0
  1671   000008  8230               	bsf	int$flags,1,c	;set compiler interrupt flag (level 2)
  1672   00000A  EF72  F008         	goto	int_func
  1673                           
  1674                           	psect	intcode_body
  1675   0010E4                     __pintcode_body:
  1676                           	callstack 27
  1677   0010E4                     int_func:
  1678                           	callstack 27
  1679   0010E4                     
  1680                           ;interrupts.c: 30:         if(PIR2bits.C1IF){
  1681   0010E4  010E               	movlb	14	; () banked
  1682   0010E6  A135               	btfss	53,0,b	;volatile
  1683   0010E8  EF78  F008         	goto	i2u29_41
  1684   0010EC  EF7A  F008         	goto	i2u29_40
  1685   0010F0                     i2u29_41:
  1686   0010F0  EF8E  F008         	goto	i2l169
  1687   0010F4                     i2u29_40:
  1688   0010F4                     
  1689                           ; BSR set to: 14
  1690                           ;interrupts.c: 31:         LATHbits.LATH3 = !LATHbits.LATH3;
  1691   0010F4  A680               	btfss	128,3,c	;volatile
  1692   0010F6  EF7F  F008         	goto	i2u30_41
  1693   0010FA  EF83  F008         	goto	i2u30_40
  1694   0010FE                     i2u30_41:
  1695   0010FE  6A01               	clrf	??_HighISR^0,c
  1696   001100  2A01               	incf	??_HighISR^0,f,c
  1697   001102  EF84  F008         	goto	i2u31_48
  1698   001106                     i2u30_40:
  1699   001106  6A01               	clrf	??_HighISR^0,c
  1700   001108                     i2u31_48:
  1701   001108  4601               	rlncf	??_HighISR^0,f,c
  1702   00110A  4601               	rlncf	??_HighISR^0,f,c
  1703   00110C  4601               	rlncf	??_HighISR^0,f,c
  1704   00110E  5080               	movf	128,w,c	;volatile
  1705   001110  1801               	xorwf	??_HighISR^0,w,c
  1706   001112  0BF7               	andlw	-9
  1707   001114  1801               	xorwf	??_HighISR^0,w,c
  1708   001116  6E80               	movwf	128,c	;volatile
  1709   001118                     
  1710                           ;interrupts.c: 32:         PIR2bits.C1IF=0;
  1711   001118  010E               	movlb	14	; () banked
  1712   00111A  9135               	bcf	53,0,b	;volatile
  1713   00111C                     i2l169:
  1714                           
  1715                           ; BSR set to: 14
  1716   00111C  9230               	bcf	int$flags,1,c	;clear compiler interrupt flag (level 2)
  1717   00111E  0011               	retfie		f
  1718   001120                     __end_of_HighISR:
  1719                           	callstack 0
  1720                           
  1721                           	psect	rparam
  1722   000000                     
  1723                           	psect	temp
  1724   000030                     btemp:
  1725                           	callstack 0
  1726   000030                     	ds	1
  1727   000000                     int$flags	set	btemp
  1728   000000                     wtemp8	set	btemp+1
  1729   000000                     ttemp5	set	btemp+1
  1730   000000                     ttemp6	set	btemp+4
  1731   000000                     ttemp7	set	btemp+8
  1732                           
  1733                           	psect	idloc
  1734                           
  1735                           ;Config register IDLOC0 @ 0x200000
  1736                           ;	unspecified, using default values
  1737   200000                     	org	2097152
  1738   200000  0FFF               	dw	4095
  1739                           
  1740                           ;Config register IDLOC1 @ 0x200002
  1741                           ;	unspecified, using default values
  1742   200002                     	org	2097154
  1743   200002  0FFF               	dw	4095
  1744                           
  1745                           ;Config register IDLOC2 @ 0x200004
  1746                           ;	unspecified, using default values
  1747   200004                     	org	2097156
  1748   200004  0FFF               	dw	4095
  1749                           
  1750                           ;Config register IDLOC3 @ 0x200006
  1751                           ;	unspecified, using default values
  1752   200006                     	org	2097158
  1753   200006  0FFF               	dw	4095
  1754                           
  1755                           ;Config register IDLOC4 @ 0x200008
  1756                           ;	unspecified, using default values
  1757   200008                     	org	2097160
  1758   200008  0FFF               	dw	4095
  1759                           
  1760                           ;Config register IDLOC5 @ 0x20000A
  1761                           ;	unspecified, using default values
  1762   20000A                     	org	2097162
  1763   20000A  0FFF               	dw	4095
  1764                           
  1765                           ;Config register IDLOC6 @ 0x20000C
  1766                           ;	unspecified, using default values
  1767   20000C                     	org	2097164
  1768   20000C  0FFF               	dw	4095
  1769                           
  1770                           ;Config register IDLOC7 @ 0x20000E
  1771                           ;	unspecified, using default values
  1772   20000E                     	org	2097166
  1773   20000E  0FFF               	dw	4095
  1774                           
  1775                           	psect	config
  1776                           
  1777                           ;Config register CONFIG1L @ 0x300000
  1778                           ;	External Oscillator mode Selection bits
  1779                           ;	FEXTOSC = HS, HS (crystal oscillator) above 8 MHz; PFM set to high power
  1780                           ;	Power-up default value for COSC bits
  1781                           ;	RSTOSC = EXTOSC_4PLL, EXTOSC with 4x PLL, with EXTOSC operating per FEXTOSC bits
  1782   300000                     	org	3145728
  1783   300000  AA                 	db	170
  1784                           
  1785                           ;Config register CONFIG1H @ 0x300001
  1786                           ;	unspecified, using default values
  1787                           ;	Clock Out Enable bit
  1788                           ;	CLKOUTEN = 0x1, unprogrammed default
  1789                           ;	Clock Switch Enable bit
  1790                           ;	CSWEN = 0x1, unprogrammed default
  1791                           ;	Fail-Safe Clock Monitor Enable bit
  1792                           ;	FCMEN = 0x1, unprogrammed default
  1793   300001                     	org	3145729
  1794   300001  FF                 	db	255
  1795                           
  1796                           ;Config register CONFIG2L @ 0x300002
  1797                           ;	unspecified, using default values
  1798                           ;	Master Clear Enable bit
  1799                           ;	MCLRE = 0x1, unprogrammed default
  1800                           ;	Power-up Timer Enable bit
  1801                           ;	PWRTE = 0x1, unprogrammed default
  1802                           ;	Low-power BOR enable bit
  1803                           ;	LPBOREN = 0x1, unprogrammed default
  1804                           ;	Brown-out Reset Enable bits
  1805                           ;	BOREN = 0x3, unprogrammed default
  1806   300002                     	org	3145730
  1807   300002  FF                 	db	255
  1808                           
  1809                           ;Config register CONFIG2H @ 0x300003
  1810                           ;	unspecified, using default values
  1811                           ;	Brown Out Reset Voltage selection bits
  1812                           ;	BORV = 0x3, unprogrammed default
  1813                           ;	ZCD Disable bit
  1814                           ;	ZCD = 0x1, unprogrammed default
  1815                           ;	PPSLOCK bit One-Way Set Enable bit
  1816                           ;	PPS1WAY = 0x1, unprogrammed default
  1817                           ;	Stack Full/Underflow Reset Enable bit
  1818                           ;	STVREN = 0x1, unprogrammed default
  1819                           ;	Debugger Enable bit
  1820                           ;	DEBUG = 0x1, unprogrammed default
  1821                           ;	Extended Instruction Set Enable bit
  1822                           ;	XINST = 0x1, unprogrammed default
  1823   300003                     	org	3145731
  1824   300003  FF                 	db	255
  1825                           
  1826                           ;Config register CONFIG3L @ 0x300004
  1827                           ;	WDT Period Select bits
  1828                           ;	WDTCPS = 0x1F, unprogrammed default
  1829                           ;	WDT operating mode
  1830                           ;	WDTE = OFF, WDT Disabled
  1831   300004                     	org	3145732
  1832   300004  9F                 	db	159
  1833                           
  1834                           ;Config register CONFIG3H @ 0x300005
  1835                           ;	unspecified, using default values
  1836                           ;	WDT Window Select bits
  1837                           ;	WDTCWS = 0x7, unprogrammed default
  1838                           ;	WDT input clock selector
  1839                           ;	WDTCCS = 0x7, unprogrammed default
  1840   300005                     	org	3145733
  1841   300005  FF                 	db	255
  1842                           
  1843                           ;Config register CONFIG4L @ 0x300006
  1844                           ;	unspecified, using default values
  1845                           ;	Write Protection Block 0
  1846                           ;	WRT0 = 0x1, unprogrammed default
  1847                           ;	Write Protection Block 1
  1848                           ;	WRT1 = 0x1, unprogrammed default
  1849                           ;	Write Protection Block 2
  1850                           ;	WRT2 = 0x1, unprogrammed default
  1851                           ;	Write Protection Block 3
  1852                           ;	WRT3 = 0x1, unprogrammed default
  1853                           ;	Write Protection Block 3
  1854                           ;	WRT4 = 0x1, unprogrammed default
  1855                           ;	Write Protection Block 3
  1856                           ;	WRT5 = 0x1, unprogrammed default
  1857                           ;	Write Protection Block 3
  1858                           ;	WRT6 = 0x1, unprogrammed default
  1859                           ;	Write Protection Block 3
  1860                           ;	WRT7 = 0x1, unprogrammed default
  1861   300006                     	org	3145734
  1862   300006  FF                 	db	255
  1863                           
  1864                           ;Config register CONFIG4H @ 0x300007
  1865                           ;	unspecified, using default values
  1866                           ;	Configuration Register Write Protection bit
  1867                           ;	WRTC = 0x1, unprogrammed default
  1868                           ;	Boot Block Write Protection bit
  1869                           ;	WRTB = 0x1, unprogrammed default
  1870                           ;	Data EEPROM Write Protection bit
  1871                           ;	WRTD = 0x1, unprogrammed default
  1872                           ;	Scanner Enable bit
  1873                           ;	SCANE = 0x1, unprogrammed default
  1874                           ;	Low Voltage Programming Enable bit
  1875                           ;	LVP = 0x1, unprogrammed default
  1876   300007                     	org	3145735
  1877   300007  FF                 	db	255
  1878                           
  1879                           ;Config register CONFIG5L @ 0x300008
  1880                           ;	unspecified, using default values
  1881                           ;	UserNVM Program Memory Code Protection bit
  1882                           ;	CP = 0x1, unprogrammed default
  1883                           ;	DataNVM Memory Code Protection bit
  1884                           ;	CPD = 0x1, unprogrammed default
  1885   300008                     	org	3145736
  1886   300008  FF                 	db	255
  1887                           
  1888                           ;Config register CONFIG5H @ 0x300009
  1889                           ;	unspecified, using default values
  1890   300009                     	org	3145737
  1891   300009  FF                 	db	255
  1892                           
  1893                           ;Config register CONFIG6L @ 0x30000A
  1894                           ;	unspecified, using default values
  1895                           ;	Table Read Protection Block 0
  1896                           ;	EBTR0 = 0x1, unprogrammed default
  1897                           ;	Table Read Protection Block 1
  1898                           ;	EBTR1 = 0x1, unprogrammed default
  1899                           ;	Table Read Protection Block 2
  1900                           ;	EBTR2 = 0x1, unprogrammed default
  1901                           ;	Table Read Protection Block 3
  1902                           ;	EBTR3 = 0x1, unprogrammed default
  1903                           ;	Table Read Protection Block 4
  1904                           ;	EBTR4 = 0x1, unprogrammed default
  1905                           ;	Table Read Protection Block 5
  1906                           ;	EBTR5 = 0x1, unprogrammed default
  1907                           ;	Table Read Protection Block 6
  1908                           ;	EBTR6 = 0x1, unprogrammed default
  1909                           ;	Table Read Protection Block 7
  1910                           ;	EBTR7 = 0x1, unprogrammed default
  1911   30000A                     	org	3145738
  1912   30000A  FF                 	db	255
  1913                           
  1914                           ;Config register CONFIG6H @ 0x30000B
  1915                           ;	unspecified, using default values
  1916                           ;	Boot Block Table Read Protection bit
  1917                           ;	EBTRB = 0x1, unprogrammed default
  1918   30000B                     	org	3145739
  1919   30000B  FF                 	db	255
  1920                           tosu	equ	0xFFF
  1921                           tosh	equ	0xFFE
  1922                           tosl	equ	0xFFD
  1923                           stkptr	equ	0xFFC
  1924                           pclatu	equ	0xFFB
  1925                           pclath	equ	0xFFA
  1926                           pcl	equ	0xFF9
  1927                           tblptru	equ	0xFF8
  1928                           tblptrh	equ	0xFF7
  1929                           tblptrl	equ	0xFF6
  1930                           tablat	equ	0xFF5
  1931                           prodh	equ	0xFF4
  1932                           prodl	equ	0xFF3
  1933                           indf0	equ	0xFEF
  1934                           postinc0	equ	0xFEE
  1935                           postdec0	equ	0xFED
  1936                           preinc0	equ	0xFEC
  1937                           plusw0	equ	0xFEB
  1938                           fsr0h	equ	0xFEA
  1939                           fsr0l	equ	0xFE9
  1940                           wreg	equ	0xFE8
  1941                           indf1	equ	0xFE7
  1942                           postinc1	equ	0xFE6
  1943                           postdec1	equ	0xFE5
  1944                           preinc1	equ	0xFE4
  1945                           plusw1	equ	0xFE3
  1946                           fsr1h	equ	0xFE2
  1947                           fsr1l	equ	0xFE1
  1948                           bsr	equ	0xFE0
  1949                           indf2	equ	0xFDF
  1950                           postinc2	equ	0xFDE
  1951                           postdec2	equ	0xFDD
  1952                           preinc2	equ	0xFDC
  1953                           plusw2	equ	0xFDB
  1954                           fsr2h	equ	0xFDA
  1955                           fsr2l	equ	0xFD9
  1956                           status	equ	0xFD8

Data Sizes:
    Strings     1
    Constant    124
    Data        0
    BSS         16
    Persistent  0
    Stack       0

Auto Spaces:
    Space          Size  Autos    Used
    COMRAM           94     31      47
    BANK0           160      0       0
    BANK1           256      0       0
    BANK2           256      0       0
    BANK3           256      0       0
    BANK4           256      0       0
    BANK5           256      0       0
    BANK6           256      0       0
    BANK7           256      0       0
    BANK8           256      0       0
    BANK9           256      0       0
    BANK10          256      0       0
    BANK11          256      0       0
    BANK12          256      0       0
    BANK13          234      0       0

Pointer List with Targets:

    None.

Critical Paths under _main in COMRAM

    _increment->_LEDarray_disp_bin

Critical Paths under _LowISR in COMRAM

    None.

Critical Paths under _HighISR in COMRAM

    None.

Critical Paths under _main in BANK0

    None.

Critical Paths under _LowISR in BANK0

    None.

Critical Paths under _HighISR in BANK0

    None.

Critical Paths under _main in BANK1

    None.

Critical Paths under _LowISR in BANK1

    None.

Critical Paths under _HighISR in BANK1

    None.

Critical Paths under _main in BANK2

    None.

Critical Paths under _LowISR in BANK2

    None.

Critical Paths under _HighISR in BANK2

    None.

Critical Paths under _main in BANK3

    None.

Critical Paths under _LowISR in BANK3

    None.

Critical Paths under _HighISR in BANK3

    None.

Critical Paths under _main in BANK4

    None.

Critical Paths under _LowISR in BANK4

    None.

Critical Paths under _HighISR in BANK4

    None.

Critical Paths under _main in BANK5

    None.

Critical Paths under _LowISR in BANK5

    None.

Critical Paths under _HighISR in BANK5

    None.

Critical Paths under _main in BANK6

    None.

Critical Paths under _LowISR in BANK6

    None.

Critical Paths under _HighISR in BANK6

    None.

Critical Paths under _main in BANK7

    None.

Critical Paths under _LowISR in BANK7

    None.

Critical Paths under _HighISR in BANK7

    None.

Critical Paths under _main in BANK8

    None.

Critical Paths under _LowISR in BANK8

    None.

Critical Paths under _HighISR in BANK8

    None.

Critical Paths under _main in BANK9

    None.

Critical Paths under _LowISR in BANK9

    None.

Critical Paths under _HighISR in BANK9

    None.

Critical Paths under _main in BANK10

    None.

Critical Paths under _LowISR in BANK10

    None.

Critical Paths under _HighISR in BANK10

    None.

Critical Paths under _main in BANK11

    None.

Critical Paths under _LowISR in BANK11

    None.

Critical Paths under _HighISR in BANK11

    None.

Critical Paths under _main in BANK12

    None.

Critical Paths under _LowISR in BANK12

    None.

Critical Paths under _HighISR in BANK12

    None.

Critical Paths under _main in BANK13

    None.

Critical Paths under _LowISR in BANK13

    None.

Critical Paths under _HighISR in BANK13

    None.

Call Graph Tables:

 ---------------------------------------------------------------------------------
 (Depth) Function   	        Calls       Base Space   Used Autos Params    Refs
 ---------------------------------------------------------------------------------
 (0) _main                                                 0     0      0    1218
                           _ADC_init
            _Comp1_init_falling_edge
             _Comp1_init_rising_edge
                    _Interrupts_init
                      _LEDarray_init
                        _Timer0_init
                          _increment
                           _poweroff
                    _streetLightInit
 ---------------------------------------------------------------------------------
 (1) _streetLightInit                                      0     0      0       0
 ---------------------------------------------------------------------------------
 (1) _poweroff                                             0     0      0       0
 ---------------------------------------------------------------------------------
 (1) _increment                                            0     0      0    1218
                  _LEDarray_disp_bin
                            ___awmod
 ---------------------------------------------------------------------------------
 (2) ___awmod                                              6     2      4     448
                                              5 COMRAM     6     2      4
 ---------------------------------------------------------------------------------
 (2) _LEDarray_disp_bin                                   26    24      2     770
                                              5 COMRAM    26    24      2
 ---------------------------------------------------------------------------------
 (1) _Timer0_init                                          0     0      0       0
 ---------------------------------------------------------------------------------
 (1) _LEDarray_init                                        0     0      0       0
 ---------------------------------------------------------------------------------
 (1) _Interrupts_init                                      0     0      0       0
 ---------------------------------------------------------------------------------
 (1) _Comp1_init_rising_edge                               0     0      0       0
                           _DAC_init
 ---------------------------------------------------------------------------------
 (1) _Comp1_init_falling_edge                              0     0      0       0
                           _DAC_init
 ---------------------------------------------------------------------------------
 (2) _DAC_init                                             0     0      0       0
 ---------------------------------------------------------------------------------
 (1) _ADC_init                                             0     0      0       0
 ---------------------------------------------------------------------------------
 Estimated maximum stack depth 2
 ---------------------------------------------------------------------------------
 (Depth) Function   	        Calls       Base Space   Used Autos Params    Refs
 ---------------------------------------------------------------------------------
 (3) _LowISR                                               4     4      0       0
                                              1 COMRAM     4     4      0
 ---------------------------------------------------------------------------------
 Estimated maximum stack depth 3
 ---------------------------------------------------------------------------------
 (Depth) Function   	        Calls       Base Space   Used Autos Params    Refs
 ---------------------------------------------------------------------------------
 (4) _HighISR                                              1     1      0       0
                                              0 COMRAM     1     1      0
 ---------------------------------------------------------------------------------
 Estimated maximum stack depth 4
 ---------------------------------------------------------------------------------

 Call Graph Graphs:

 _main (ROOT)
   _ADC_init
   _Comp1_init_falling_edge
     _DAC_init
   _Comp1_init_rising_edge
     _DAC_init
   _Interrupts_init
   _LEDarray_init
   _Timer0_init
   _increment
     _LEDarray_disp_bin
     ___awmod
   _poweroff
   _streetLightInit

 _LowISR (ROOT)

 _HighISR (ROOT)

 Address spaces:
Name               Size   Autos  Total    Cost      Usage
BIGRAM             DE9      0       0      53        0.0%
EEDATA             400      0       0       0        0.0%
BITBANK12          100      0       0      28        0.0%
BANK12             100      0       0      29        0.0%
BITBANK11          100      0       0      26        0.0%
BANK11             100      0       0      27        0.0%
BITBANK10          100      0       0      24        0.0%
BANK10             100      0       0      25        0.0%
BITBANK9           100      0       0      22        0.0%
BANK9              100      0       0      23        0.0%
BITBANK8           100      0       0      20        0.0%
BANK8              100      0       0      21        0.0%
BITBANK7           100      0       0      18        0.0%
BANK7              100      0       0      19        0.0%
BITBANK6           100      0       0      16        0.0%
BANK6              100      0       0      17        0.0%
BITBANK5           100      0       0      14        0.0%
BANK5              100      0       0      15        0.0%
BITBANK4           100      0       0      12        0.0%
BANK4              100      0       0      13        0.0%
BITBANK3           100      0       0      10        0.0%
BANK3              100      0       0      11        0.0%
BITBANK2           100      0       0       8        0.0%
BANK2              100      0       0       9        0.0%
BITBANK1           100      0       0       6        0.0%
BANK1              100      0       0       7        0.0%
BITBANK13           EA      0       0      30        0.0%
BANK13              EA      0       0      31        0.0%
BITBANK0            A0      0       0       4        0.0%
BANK0               A0      0       0       5        0.0%
BITBIGSFRlhlhh      84      0       0      42        0.0%
BITCOMRAM           5E      0       0       0        0.0%
COMRAM              5E     1F      2F       1       50.0%
BITBIGSFRllhh       5C      0       0      45        0.0%
BITBIGSFRhhll       4A      0       0      34        0.0%
BITBIGSFRlhll       33      0       0      44        0.0%
BITBIGSFRllllll     30      0       0      51        0.0%
BITBIGSFRhhlhh      1B      0       0      33        0.0%
BITBIGSFRlhhhhl     14      0       0      39        0.0%
BITBIGSFRhhh         D      0       0      32        0.0%
BITBIGSFRlhlhll      8      0       0      43        0.0%
BITBIGSFRllllh       7      0       0      49        0.0%
BITBIGSFRllhll       7      0       0      47        0.0%
BITBIGSFRlhhl        6      0       0      41        0.0%
BITBIGSFRlhhhl       3      0       0      40        0.0%
BITBIGSFRhlh         1      0       0      35        0.0%
BITBIGSFRlhhhhl      1      0       0      37        0.0%
BITBIGSFRllhlh       1      0       0      46        0.0%
BITBIGSFRlllllh      1      0       0      50        0.0%
BITBIGSFRlllh        1      0       0      48        0.0%
BITBIGSFRlhhhhl      1      0       0      38        0.0%
BITBIGSFRhll         1      0       0      36        0.0%
BIGSFR               0      0       0     200        0.0%
BITSFR_3             0      0       0     200        0.0%
SFR_3                0      0       0     200        0.0%
BITSFR_2             0      0       0     200        0.0%
SFR_2                0      0       0     200        0.0%
BITSFR_1             0      0       0     200        0.0%
SFR_1                0      0       0     200        0.0%
BITSFR               0      0       0     200        0.0%
SFR                  0      0       0     200        0.0%
STACK                0      0       0       2        0.0%
NULL                 0      0       0       0        0.0%
ABS                  0      0      2F      52        0.0%
DATA                 0      0      2F       3        0.0%
CODE                 0      0       0       0        0.0%


Microchip Technology PIC18 Macro Assembler V2.40 build 20220703182018 
Symbol Table                                                                                   Sun Nov 06 18:58:10 2022

                             _L1 0E59                               _L2 0E55  
                             _L3 0E51                               _L4 0E4D  
                             _L5 0E49                               _L6 0E45  
                             l29 1218                               _P1 0E41  
                             _P2 0E3D                               _P3 0E39  
                             _P4 0E35                               l73 0F0C  
                             _P5 0E31                               l76 0F66  
                             l69 1178                               _bp 0E69  
                             _cp 0E1D                               bsr 000FE0  
              ??_Interrupts_init 0006                              l112 122C  
                            l115 119C                              l118 11C0  
                            l163 123E                              l244 11E0  
                            l280 1248                              l291 10E2  
                            l287 10A6                              l538 1016  
                            u220 10C4                              u221 10C0  
                            u230 10E0                              u231 10DC  
                            u500 0FAE                              u405 0F1E  
                            u501 0FAA                              u406 0F20  
                            u510 0FCC                              u415 0F28  
                            u511 0FC8                              u416 0F2A  
                            u520 0FE2                              u425 0F32  
                            u521 0FDE                              u426 0F34  
                            u370 0EAE                              u530 1006  
                            u435 0F3C                              u371 0EAA  
                            u531 1002                              u436 0F3E  
                            u380 0F0C                              u540 102A  
                            u445 0F46                              u381 0F08  
                            u541 1026                              u446 0F48  
                            u550 1056                              u455 0F50  
                            u551 1052  __end_of_Comp1_init_falling_edge 11C2  
                            u456 0F52                              u480 0F7A  
                            u560 1088                              u465 0F5A  
                            u481 0F76                              u561 1084  
                            u466 0F5C                              u490 0F94  
                            u570 10A2                              u475 0F64  
                            u395 0F14                              u491 0F90  
                            u571 109E                              u476 0F66  
                            u396 0F16          __end_of_streetLightInit 124A  
                            _lg2 0E2D                              _day 002A  
                            _ovt 0E21                     ___awmod@sign 000B  
                            wreg 000FE8                             l1220 1220  
                           l1300 122E                             l1222 122A  
                           l1310 11DE                             l1302 1240  
                           l1304 11C2                             l1218 121A  
                           l1306 11CA                             l1260 1200  
                           l1308 11D4                             l1500 1062  
                           l1262 120A                             l1270 1154  
                           l1502 1088                             l1334 10A8  
                           l1264 1212                             l1280 1192  
                           l1272 117A                             l1440 0EAE  
                           l1432 0E80                             l1504 108C  
                           l1336 10C4                             l1266 1214  
                           l1290 11B2                             l1282 1194  
                           l1274 117C                             l1442 0ECC  
                           l1450 0F68                             l1506 10A2  
                           l1338 10E0                             l1268 1216  
                           l1292 11B4                             l1284 1198  
                           l1276 118E                             l1444 0EE6  
                           l1460 0F94                             l1452 0F6C  
                           l1294 11B6                             l1286 119E  
                           l1278 1190                             l1446 0EEC  
                           l1438 0E90                             l1470 0FCC  
                           l1462 0F9C                             l1454 0F7A  
                           l1296 11B8                             l1288 11A0  
                           l1448 0EF0                             l1480 1006  
                           l1472 0FE2                             l1464 0FAE  
                           l1456 0F82                             l1560 1134  
                           l1552 1120                             l1298 11BC  
                           l1482 100E                             l1474 0FEA  
                           l1466 0FB6                             l1458 0F86  
                           l1490 102E                             l1562 1138  
                           l1554 1124                             l1476 0FF0  
                           l1468 0FBE                             l1492 103A  
                           l1564 1140                             l1556 112C  
                           l1478 0FF6                             l1494 1042  
                           l1486 1018                             l1566 1144  
                           l1558 1130                             l1496 1056  
                           l1488 102A                             l1568 1148  
                           l1498 105A                             STR_1 0E7D  
                           _cp_h 0E79                             _cp_l 0E75  
                           _dp_h 0E09                             _dp_l 0E01  
                           _main 1120                             _huge 0E61  
                           _hour 002C                             _week 0028  
                           _year 0026                             _tiny 0E5D  
                           fsr2h 000FDA                             fsr2l 000FD9  
                           btemp 0030                             start 00A0  
               __end_of_ADC_init 121A                 __end_of_DAC_init 122E  
                __end_of_HighISR 1120                     ___param_bank 000000  
                          ?_main 0001                            _ADPCH 000F5F  
                __end_of___awmod 1018                            i1l175 007A  
                          i1l177 0090                            i2l169 111C  
                          _TMR0H 000FD4                            _TMR0L 000FD3  
                          _lg2_h 0E29                            _lg2_l 0E25  
                          _errno 0024                            _ivln2 0E19  
                __end_of_ivln2_h 0E75                  __end_of_ivln2_l 0E19  
                          _two24 0E65                            ttemp5 0031  
                          ttemp6 0034                            ttemp7 0038  
                          status 000FD8                            wtemp8 0031  
                __initialization 11E2                     __end_of_cp_h 0E7D  
                   __end_of_cp_l 0E79                     __end_of_dp_h 0E11  
                   __end_of_dp_l 0E09                     __end_of_main 1154  
                   __end_of_huge 0E65                     __end_of_tiny 0E61  
                         ??_main 0020                    __activetblptr 000001  
               ?_streetLightInit 0001                           _ADRESH 000F64  
                         i1l1400 003A                           i1l1410 008E  
                         i1l1402 003E                           i1l1404 0042  
                         i1l1406 0044                           i1l1408 0058  
                         i1l1396 0026                           i1l1398 0036  
                         i2l1390 10E4                           i2l1392 10F4  
                         i2l1394 1118                        ??_HighISR 0001  
              _LEDarray_disp_bin 0E80                           _LowISR 0018  
             ?_LEDarray_disp_bin 0006                    ??_Timer0_init 0006  
                      ??___awmod 000A            LEDarray_disp_bin@mask 001C  
            ??_LEDarray_disp_bin 0008                           clear_0 11E8  
                ___awmod@divisor 0008                           isa$std 000001  
                ___awmod@counter 000A                     __mediumconst 0000  
                         tblptrh 000FF7                           tblptru 000FF8  
                      ?_ADC_init 0001                 __end_of_poweroff 10E4  
                      ?_DAC_init 0001                 _tiny@sqrtf$F1857 0E11  
      __end_of_LEDarray_disp_bin 0F68                       __accesstop 0060  
        __end_of__initialization 11EE         ??_Comp1_init_rising_edge 0006  
                  ___rparam_used 000001                    _LEDarray_init 1154  
                _Interrupts_init 122E                   __pcstackCOMRAM 0001  
                  __end_of_lg2_h 0E2D                    __end_of_lg2_l 0E29  
                  __end_of_ivln2 0E1D                    __end_of_two24 0E69  
                     __end_of_L1 0E5D                       __end_of_L2 0E59  
                     __end_of_L3 0E55                       __end_of_L4 0E51  
                     __end_of_L5 0E4D                       __end_of_L6 0E49  
                     __end_of_P1 0E45                       __end_of_P2 0E41  
                     __end_of_P3 0E3D                       __end_of_P4 0E39  
                     __end_of_P5 0E35              __end_of_Timer0_init 11E2  
                     __end_of_bp 0E71                       __end_of_cp 0E21  
                     ??_ADC_init 0006                       ??_DAC_init 0006  
                 ?_LEDarray_init 0001                          ?_LowISR 0001  
                        i1u32_20 0036                          i1u32_21 0032  
                        i1u33_20 0058                          i1u33_21 0054  
                        i1u34_20 006A                          i1u34_21 0062  
                        i1u36_20 008E                          i1u35_28 006C  
                        i1u36_21 008A                          i2u30_40 1106  
                        i2u30_41 10FE                          i2u31_48 1108  
                        i2u29_40 10F4                          i2u29_41 10F0  
        __end_of_Interrupts_init 1240                          _HighISR 0008  
                      _ADREFbits 000F58          _Comp1_init_falling_edge 119E  
                        __Hparam 0000                          __Lparam 0000  
                    _Timer0_init 11C2                          ___awmod 0F68  
                      ?_poweroff 0001                     __psmallconst 0E00  
                        __pcinit 11E2                          __ramtop 0E00  
                        __ptext0 1120                          __ptext1 1240  
                        __ptext2 10A8                          __ptext3 1018  
                        __ptext4 0F68                          __ptext5 0E80  
                        __ptext6 11C2                          __ptext7 1154  
                        __ptext8 122E                          __ptext9 117A  
              __end_of_increment 10A8                          _ivln2_h 0E71  
                        _ivln2_l 0E15                 ___awmod@dividend 0006  
                        _seconds 002E                   __pintcode_body 10E4  
           end_of_initialization 11EE                  ??_LEDarray_init 0006  
                        int_func 10E4                          postdec2 000FDD  
                        postinc0 000FEE                          postinc2 000FDE  
       __end_of_tiny@sqrtf$F1857 0E15                       ??_poweroff 0006  
         _Comp1_init_rising_edge 117A                        _TRISAbits 000F81  
                      _TRISBbits 000F82                        _TRISDbits 000F84  
                      _TRISFbits 000F86                        _TRISGbits 000F87  
                      _TRISHbits 000F88        ??_Comp1_init_falling_edge 0006  
                    _CM1CON0bits 000ED0                      _CM1CON1bits 000ED1  
               ?_Interrupts_init 0001                   __end_of_LowISR 00A0  
            start_initialization 11E2                      __end_of_lg2 0E31  
                    __end_of_ovt 0E25                         ??_LowISR 0002  
           LEDarray_disp_bin@ctr 001E                      __pbssCOMRAM 0020  
                       ?_HighISR 0001                ??_streetLightInit 0006  
                   ?_Timer0_init 0001                        __pintcode 0008  
                       ?___awmod 0006         LEDarray_disp_bin@led_arr 000A  
                    __pintcodelo 0018                        fabsf@F465 0020  
                    __smallconst 0E00                         _ADC_init 1200  
                      _increment 1018                         _DAC_init 121A  
                       _LATAbits 000F79                         _LATBbits 000F7A  
                       _LATDbits 000F7C                         _LATFbits 000F7E  
                       _LATGbits 000F7F                         _LATHbits 000F80  
                       _IPR0bits 000E1F                         _PIE0bits 000E29  
                       _IPR2bits 000E21                         _PIE2bits 000E2B  
                       _PIR0bits 000E33                         _PIR2bits 000E35  
        ?_Comp1_init_rising_edge 0001                       _ADCON0bits 000F60  
                     ?_increment 0001                       _CM1NCHbits 000ED2  
                     _CM1PCHbits 000ED3            __end_of_LEDarray_init 117A  
                       __Hrparam 0000                         __Lrparam 0000  
                   __Lsmallconst 0E00   __end_of_Comp1_init_rising_edge 119E  
                     _ANSELAbits 000E92                       _T0CON0bits 000FD5  
                     _T0CON1bits 000FD6                         __ptext10 119E  
                       __ptext11 121A                         __ptext12 1200  
        LEDarray_disp_bin@number 0006                         isa$xinst 000000  
                       int$flags 0030                         _poweroff 10A8  
                     _INTCONbits 000FF2                      ??_increment 0020  
       ?_Comp1_init_falling_edge 0001                  _streetLightInit 1240  
                       intlevel1 0000                         intlevel2 0000  
                   _DAC1CON0bits 000EC6                     _DAC1CON1bits 000EC7  
